
rtarget:     file format elf64-x86-64


Disassembly of section .init:

0000000000400bb0 <_init>:
  400bb0:	48 83 ec 08          	sub    $0x8,%rsp
  400bb4:	48 8b 05 3d 44 20 00 	mov    0x20443d(%rip),%rax        # 604ff8 <__gmon_start__>
  400bbb:	48 85 c0             	test   %rax,%rax
  400bbe:	74 02                	je     400bc2 <_init+0x12>
  400bc0:	ff d0                	callq  *%rax
  400bc2:	48 83 c4 08          	add    $0x8,%rsp
  400bc6:	c3                   	retq   

Disassembly of section .plt:

0000000000400bd0 <.plt>:
  400bd0:	ff 35 32 44 20 00    	pushq  0x204432(%rip)        # 605008 <_GLOBAL_OFFSET_TABLE_+0x8>
  400bd6:	ff 25 34 44 20 00    	jmpq   *0x204434(%rip)        # 605010 <_GLOBAL_OFFSET_TABLE_+0x10>
  400bdc:	0f 1f 40 00          	nopl   0x0(%rax)

0000000000400be0 <strcasecmp@plt>:
  400be0:	ff 25 32 44 20 00    	jmpq   *0x204432(%rip)        # 605018 <strcasecmp@GLIBC_2.2.5>
  400be6:	68 00 00 00 00       	pushq  $0x0
  400beb:	e9 e0 ff ff ff       	jmpq   400bd0 <.plt>

0000000000400bf0 <__errno_location@plt>:
  400bf0:	ff 25 2a 44 20 00    	jmpq   *0x20442a(%rip)        # 605020 <__errno_location@GLIBC_2.2.5>
  400bf6:	68 01 00 00 00       	pushq  $0x1
  400bfb:	e9 d0 ff ff ff       	jmpq   400bd0 <.plt>

0000000000400c00 <srandom@plt>:
  400c00:	ff 25 22 44 20 00    	jmpq   *0x204422(%rip)        # 605028 <srandom@GLIBC_2.2.5>
  400c06:	68 02 00 00 00       	pushq  $0x2
  400c0b:	e9 c0 ff ff ff       	jmpq   400bd0 <.plt>

0000000000400c10 <strncmp@plt>:
  400c10:	ff 25 1a 44 20 00    	jmpq   *0x20441a(%rip)        # 605030 <strncmp@GLIBC_2.2.5>
  400c16:	68 03 00 00 00       	pushq  $0x3
  400c1b:	e9 b0 ff ff ff       	jmpq   400bd0 <.plt>

0000000000400c20 <strcpy@plt>:
  400c20:	ff 25 12 44 20 00    	jmpq   *0x204412(%rip)        # 605038 <strcpy@GLIBC_2.2.5>
  400c26:	68 04 00 00 00       	pushq  $0x4
  400c2b:	e9 a0 ff ff ff       	jmpq   400bd0 <.plt>

0000000000400c30 <puts@plt>:
  400c30:	ff 25 0a 44 20 00    	jmpq   *0x20440a(%rip)        # 605040 <puts@GLIBC_2.2.5>
  400c36:	68 05 00 00 00       	pushq  $0x5
  400c3b:	e9 90 ff ff ff       	jmpq   400bd0 <.plt>

0000000000400c40 <write@plt>:
  400c40:	ff 25 02 44 20 00    	jmpq   *0x204402(%rip)        # 605048 <write@GLIBC_2.2.5>
  400c46:	68 06 00 00 00       	pushq  $0x6
  400c4b:	e9 80 ff ff ff       	jmpq   400bd0 <.plt>

0000000000400c50 <mmap@plt>:
  400c50:	ff 25 fa 43 20 00    	jmpq   *0x2043fa(%rip)        # 605050 <mmap@GLIBC_2.2.5>
  400c56:	68 07 00 00 00       	pushq  $0x7
  400c5b:	e9 70 ff ff ff       	jmpq   400bd0 <.plt>

0000000000400c60 <printf@plt>:
  400c60:	ff 25 f2 43 20 00    	jmpq   *0x2043f2(%rip)        # 605058 <printf@GLIBC_2.2.5>
  400c66:	68 08 00 00 00       	pushq  $0x8
  400c6b:	e9 60 ff ff ff       	jmpq   400bd0 <.plt>

0000000000400c70 <memset@plt>:
  400c70:	ff 25 ea 43 20 00    	jmpq   *0x2043ea(%rip)        # 605060 <memset@GLIBC_2.2.5>
  400c76:	68 09 00 00 00       	pushq  $0x9
  400c7b:	e9 50 ff ff ff       	jmpq   400bd0 <.plt>

0000000000400c80 <alarm@plt>:
  400c80:	ff 25 e2 43 20 00    	jmpq   *0x2043e2(%rip)        # 605068 <alarm@GLIBC_2.2.5>
  400c86:	68 0a 00 00 00       	pushq  $0xa
  400c8b:	e9 40 ff ff ff       	jmpq   400bd0 <.plt>

0000000000400c90 <close@plt>:
  400c90:	ff 25 da 43 20 00    	jmpq   *0x2043da(%rip)        # 605070 <close@GLIBC_2.2.5>
  400c96:	68 0b 00 00 00       	pushq  $0xb
  400c9b:	e9 30 ff ff ff       	jmpq   400bd0 <.plt>

0000000000400ca0 <read@plt>:
  400ca0:	ff 25 d2 43 20 00    	jmpq   *0x2043d2(%rip)        # 605078 <read@GLIBC_2.2.5>
  400ca6:	68 0c 00 00 00       	pushq  $0xc
  400cab:	e9 20 ff ff ff       	jmpq   400bd0 <.plt>

0000000000400cb0 <signal@plt>:
  400cb0:	ff 25 ca 43 20 00    	jmpq   *0x2043ca(%rip)        # 605080 <signal@GLIBC_2.2.5>
  400cb6:	68 0d 00 00 00       	pushq  $0xd
  400cbb:	e9 10 ff ff ff       	jmpq   400bd0 <.plt>

0000000000400cc0 <gethostbyname@plt>:
  400cc0:	ff 25 c2 43 20 00    	jmpq   *0x2043c2(%rip)        # 605088 <gethostbyname@GLIBC_2.2.5>
  400cc6:	68 0e 00 00 00       	pushq  $0xe
  400ccb:	e9 00 ff ff ff       	jmpq   400bd0 <.plt>

0000000000400cd0 <fprintf@plt>:
  400cd0:	ff 25 ba 43 20 00    	jmpq   *0x2043ba(%rip)        # 605090 <fprintf@GLIBC_2.2.5>
  400cd6:	68 0f 00 00 00       	pushq  $0xf
  400cdb:	e9 f0 fe ff ff       	jmpq   400bd0 <.plt>

0000000000400ce0 <strtol@plt>:
  400ce0:	ff 25 b2 43 20 00    	jmpq   *0x2043b2(%rip)        # 605098 <strtol@GLIBC_2.2.5>
  400ce6:	68 10 00 00 00       	pushq  $0x10
  400ceb:	e9 e0 fe ff ff       	jmpq   400bd0 <.plt>

0000000000400cf0 <memcpy@plt>:
  400cf0:	ff 25 aa 43 20 00    	jmpq   *0x2043aa(%rip)        # 6050a0 <memcpy@GLIBC_2.14>
  400cf6:	68 11 00 00 00       	pushq  $0x11
  400cfb:	e9 d0 fe ff ff       	jmpq   400bd0 <.plt>

0000000000400d00 <time@plt>:
  400d00:	ff 25 a2 43 20 00    	jmpq   *0x2043a2(%rip)        # 6050a8 <time@GLIBC_2.2.5>
  400d06:	68 12 00 00 00       	pushq  $0x12
  400d0b:	e9 c0 fe ff ff       	jmpq   400bd0 <.plt>

0000000000400d10 <random@plt>:
  400d10:	ff 25 9a 43 20 00    	jmpq   *0x20439a(%rip)        # 6050b0 <random@GLIBC_2.2.5>
  400d16:	68 13 00 00 00       	pushq  $0x13
  400d1b:	e9 b0 fe ff ff       	jmpq   400bd0 <.plt>

0000000000400d20 <_IO_getc@plt>:
  400d20:	ff 25 92 43 20 00    	jmpq   *0x204392(%rip)        # 6050b8 <_IO_getc@GLIBC_2.2.5>
  400d26:	68 14 00 00 00       	pushq  $0x14
  400d2b:	e9 a0 fe ff ff       	jmpq   400bd0 <.plt>

0000000000400d30 <__isoc99_sscanf@plt>:
  400d30:	ff 25 8a 43 20 00    	jmpq   *0x20438a(%rip)        # 6050c0 <__isoc99_sscanf@GLIBC_2.7>
  400d36:	68 15 00 00 00       	pushq  $0x15
  400d3b:	e9 90 fe ff ff       	jmpq   400bd0 <.plt>

0000000000400d40 <munmap@plt>:
  400d40:	ff 25 82 43 20 00    	jmpq   *0x204382(%rip)        # 6050c8 <munmap@GLIBC_2.2.5>
  400d46:	68 16 00 00 00       	pushq  $0x16
  400d4b:	e9 80 fe ff ff       	jmpq   400bd0 <.plt>

0000000000400d50 <bcopy@plt>:
  400d50:	ff 25 7a 43 20 00    	jmpq   *0x20437a(%rip)        # 6050d0 <bcopy@GLIBC_2.2.5>
  400d56:	68 17 00 00 00       	pushq  $0x17
  400d5b:	e9 70 fe ff ff       	jmpq   400bd0 <.plt>

0000000000400d60 <fopen@plt>:
  400d60:	ff 25 72 43 20 00    	jmpq   *0x204372(%rip)        # 6050d8 <fopen@GLIBC_2.2.5>
  400d66:	68 18 00 00 00       	pushq  $0x18
  400d6b:	e9 60 fe ff ff       	jmpq   400bd0 <.plt>

0000000000400d70 <getopt@plt>:
  400d70:	ff 25 6a 43 20 00    	jmpq   *0x20436a(%rip)        # 6050e0 <getopt@GLIBC_2.2.5>
  400d76:	68 19 00 00 00       	pushq  $0x19
  400d7b:	e9 50 fe ff ff       	jmpq   400bd0 <.plt>

0000000000400d80 <strtoul@plt>:
  400d80:	ff 25 62 43 20 00    	jmpq   *0x204362(%rip)        # 6050e8 <strtoul@GLIBC_2.2.5>
  400d86:	68 1a 00 00 00       	pushq  $0x1a
  400d8b:	e9 40 fe ff ff       	jmpq   400bd0 <.plt>

0000000000400d90 <gethostname@plt>:
  400d90:	ff 25 5a 43 20 00    	jmpq   *0x20435a(%rip)        # 6050f0 <gethostname@GLIBC_2.2.5>
  400d96:	68 1b 00 00 00       	pushq  $0x1b
  400d9b:	e9 30 fe ff ff       	jmpq   400bd0 <.plt>

0000000000400da0 <sprintf@plt>:
  400da0:	ff 25 52 43 20 00    	jmpq   *0x204352(%rip)        # 6050f8 <sprintf@GLIBC_2.2.5>
  400da6:	68 1c 00 00 00       	pushq  $0x1c
  400dab:	e9 20 fe ff ff       	jmpq   400bd0 <.plt>

0000000000400db0 <exit@plt>:
  400db0:	ff 25 4a 43 20 00    	jmpq   *0x20434a(%rip)        # 605100 <exit@GLIBC_2.2.5>
  400db6:	68 1d 00 00 00       	pushq  $0x1d
  400dbb:	e9 10 fe ff ff       	jmpq   400bd0 <.plt>

0000000000400dc0 <connect@plt>:
  400dc0:	ff 25 42 43 20 00    	jmpq   *0x204342(%rip)        # 605108 <connect@GLIBC_2.2.5>
  400dc6:	68 1e 00 00 00       	pushq  $0x1e
  400dcb:	e9 00 fe ff ff       	jmpq   400bd0 <.plt>

0000000000400dd0 <socket@plt>:
  400dd0:	ff 25 3a 43 20 00    	jmpq   *0x20433a(%rip)        # 605110 <socket@GLIBC_2.2.5>
  400dd6:	68 1f 00 00 00       	pushq  $0x1f
  400ddb:	e9 f0 fd ff ff       	jmpq   400bd0 <.plt>

Disassembly of section .text:

0000000000400de0 <_start>:
  400de0:	31 ed                	xor    %ebp,%ebp
  400de2:	49 89 d1             	mov    %rdx,%r9
  400de5:	5e                   	pop    %rsi
  400de6:	48 89 e2             	mov    %rsp,%rdx
  400de9:	48 83 e4 f0          	and    $0xfffffffffffffff0,%rsp
  400ded:	50                   	push   %rax
  400dee:	54                   	push   %rsp
  400def:	49 c7 c0 90 2d 40 00 	mov    $0x402d90,%r8
  400df6:	48 c7 c1 20 2d 40 00 	mov    $0x402d20,%rcx
  400dfd:	48 c7 c7 8d 10 40 00 	mov    $0x40108d,%rdi
  400e04:	ff 15 e6 41 20 00    	callq  *0x2041e6(%rip)        # 604ff0 <__libc_start_main@GLIBC_2.2.5>
  400e0a:	f4                   	hlt    
  400e0b:	0f 1f 44 00 00       	nopl   0x0(%rax,%rax,1)

0000000000400e10 <deregister_tm_clones>:
  400e10:	b8 97 54 60 00       	mov    $0x605497,%eax
  400e15:	55                   	push   %rbp
  400e16:	48 2d 90 54 60 00    	sub    $0x605490,%rax
  400e1c:	48 83 f8 0e          	cmp    $0xe,%rax
  400e20:	48 89 e5             	mov    %rsp,%rbp
  400e23:	76 1b                	jbe    400e40 <deregister_tm_clones+0x30>
  400e25:	b8 00 00 00 00       	mov    $0x0,%eax
  400e2a:	48 85 c0             	test   %rax,%rax
  400e2d:	74 11                	je     400e40 <deregister_tm_clones+0x30>
  400e2f:	5d                   	pop    %rbp
  400e30:	bf 90 54 60 00       	mov    $0x605490,%edi
  400e35:	ff e0                	jmpq   *%rax
  400e37:	66 0f 1f 84 00 00 00 	nopw   0x0(%rax,%rax,1)
  400e3e:	00 00 
  400e40:	5d                   	pop    %rbp
  400e41:	c3                   	retq   
  400e42:	0f 1f 40 00          	nopl   0x0(%rax)
  400e46:	66 2e 0f 1f 84 00 00 	nopw   %cs:0x0(%rax,%rax,1)
  400e4d:	00 00 00 

0000000000400e50 <register_tm_clones>:
  400e50:	be 90 54 60 00       	mov    $0x605490,%esi
  400e55:	55                   	push   %rbp
  400e56:	48 81 ee 90 54 60 00 	sub    $0x605490,%rsi
  400e5d:	48 c1 fe 03          	sar    $0x3,%rsi
  400e61:	48 89 e5             	mov    %rsp,%rbp
  400e64:	48 89 f0             	mov    %rsi,%rax
  400e67:	48 c1 e8 3f          	shr    $0x3f,%rax
  400e6b:	48 01 c6             	add    %rax,%rsi
  400e6e:	48 d1 fe             	sar    %rsi
  400e71:	74 15                	je     400e88 <register_tm_clones+0x38>
  400e73:	b8 00 00 00 00       	mov    $0x0,%eax
  400e78:	48 85 c0             	test   %rax,%rax
  400e7b:	74 0b                	je     400e88 <register_tm_clones+0x38>
  400e7d:	5d                   	pop    %rbp
  400e7e:	bf 90 54 60 00       	mov    $0x605490,%edi
  400e83:	ff e0                	jmpq   *%rax
  400e85:	0f 1f 00             	nopl   (%rax)
  400e88:	5d                   	pop    %rbp
  400e89:	c3                   	retq   
  400e8a:	66 0f 1f 44 00 00    	nopw   0x0(%rax,%rax,1)

0000000000400e90 <__do_global_dtors_aux>:
  400e90:	80 3d 31 46 20 00 00 	cmpb   $0x0,0x204631(%rip)        # 6054c8 <completed.6972>
  400e97:	75 11                	jne    400eaa <__do_global_dtors_aux+0x1a>
  400e99:	55                   	push   %rbp
  400e9a:	48 89 e5             	mov    %rsp,%rbp
  400e9d:	e8 6e ff ff ff       	callq  400e10 <deregister_tm_clones>
  400ea2:	5d                   	pop    %rbp
  400ea3:	c6 05 1e 46 20 00 01 	movb   $0x1,0x20461e(%rip)        # 6054c8 <completed.6972>
  400eaa:	f3 c3                	repz retq 
  400eac:	0f 1f 40 00          	nopl   0x0(%rax)

0000000000400eb0 <frame_dummy>:
  400eb0:	bf 18 4e 60 00       	mov    $0x604e18,%edi
  400eb5:	48 83 3f 00          	cmpq   $0x0,(%rdi)
  400eb9:	75 05                	jne    400ec0 <frame_dummy+0x10>
  400ebb:	eb 93                	jmp    400e50 <register_tm_clones>
  400ebd:	0f 1f 00             	nopl   (%rax)
  400ec0:	b8 00 00 00 00       	mov    $0x0,%eax
  400ec5:	48 85 c0             	test   %rax,%rax
  400ec8:	74 f1                	je     400ebb <frame_dummy+0xb>
  400eca:	55                   	push   %rbp
  400ecb:	48 89 e5             	mov    %rsp,%rbp
  400ece:	ff d0                	callq  *%rax
  400ed0:	5d                   	pop    %rbp
  400ed1:	e9 7a ff ff ff       	jmpq   400e50 <register_tm_clones>

0000000000400ed6 <usage>:
  400ed6:	48 83 ec 08          	sub    $0x8,%rsp
  400eda:	48 89 fe             	mov    %rdi,%rsi
  400edd:	83 3d 24 46 20 00 00 	cmpl   $0x0,0x204624(%rip)        # 605508 <is_checker>
  400ee4:	74 4b                	je     400f31 <usage+0x5b>
  400ee6:	48 8d 3d bb 1e 00 00 	lea    0x1ebb(%rip),%rdi        # 402da8 <_IO_stdin_used+0x8>
  400eed:	b8 00 00 00 00       	mov    $0x0,%eax
  400ef2:	e8 69 fd ff ff       	callq  400c60 <printf@plt>
  400ef7:	48 8d 3d e2 1e 00 00 	lea    0x1ee2(%rip),%rdi        # 402de0 <_IO_stdin_used+0x40>
  400efe:	e8 2d fd ff ff       	callq  400c30 <puts@plt>
  400f03:	48 8d 3d 0e 20 00 00 	lea    0x200e(%rip),%rdi        # 402f18 <_IO_stdin_used+0x178>
  400f0a:	e8 21 fd ff ff       	callq  400c30 <puts@plt>
  400f0f:	48 8d 3d f2 1e 00 00 	lea    0x1ef2(%rip),%rdi        # 402e08 <_IO_stdin_used+0x68>
  400f16:	e8 15 fd ff ff       	callq  400c30 <puts@plt>
  400f1b:	48 8d 3d 10 20 00 00 	lea    0x2010(%rip),%rdi        # 402f32 <_IO_stdin_used+0x192>
  400f22:	e8 09 fd ff ff       	callq  400c30 <puts@plt>
  400f27:	bf 00 00 00 00       	mov    $0x0,%edi
  400f2c:	e8 7f fe ff ff       	callq  400db0 <exit@plt>
  400f31:	48 8d 3d 16 20 00 00 	lea    0x2016(%rip),%rdi        # 402f4e <_IO_stdin_used+0x1ae>
  400f38:	b8 00 00 00 00       	mov    $0x0,%eax
  400f3d:	e8 1e fd ff ff       	callq  400c60 <printf@plt>
  400f42:	48 8d 3d e7 1e 00 00 	lea    0x1ee7(%rip),%rdi        # 402e30 <_IO_stdin_used+0x90>
  400f49:	e8 e2 fc ff ff       	callq  400c30 <puts@plt>
  400f4e:	48 8d 3d 03 1f 00 00 	lea    0x1f03(%rip),%rdi        # 402e58 <_IO_stdin_used+0xb8>
  400f55:	e8 d6 fc ff ff       	callq  400c30 <puts@plt>
  400f5a:	48 8d 3d 0b 20 00 00 	lea    0x200b(%rip),%rdi        # 402f6c <_IO_stdin_used+0x1cc>
  400f61:	e8 ca fc ff ff       	callq  400c30 <puts@plt>
  400f66:	eb bf                	jmp    400f27 <usage+0x51>

0000000000400f68 <initialize_target>:
  400f68:	55                   	push   %rbp
  400f69:	53                   	push   %rbx
  400f6a:	48 81 ec 08 21 00 00 	sub    $0x2108,%rsp
  400f71:	89 f5                	mov    %esi,%ebp
  400f73:	89 3d 7f 45 20 00    	mov    %edi,0x20457f(%rip)        # 6054f8 <check_level>
  400f79:	8b 3d b1 41 20 00    	mov    0x2041b1(%rip),%edi        # 605130 <target_id>
  400f7f:	e8 75 1d 00 00       	callq  402cf9 <gencookie>
  400f84:	89 05 7a 45 20 00    	mov    %eax,0x20457a(%rip)        # 605504 <cookie>
  400f8a:	89 c7                	mov    %eax,%edi
  400f8c:	e8 68 1d 00 00       	callq  402cf9 <gencookie>
  400f91:	89 05 69 45 20 00    	mov    %eax,0x204569(%rip)        # 605500 <authkey>
  400f97:	8b 05 93 41 20 00    	mov    0x204193(%rip),%eax        # 605130 <target_id>
  400f9d:	8d 78 01             	lea    0x1(%rax),%edi
  400fa0:	e8 5b fc ff ff       	callq  400c00 <srandom@plt>
  400fa5:	e8 66 fd ff ff       	callq  400d10 <random@plt>
  400faa:	89 c7                	mov    %eax,%edi
  400fac:	e8 c3 02 00 00       	callq  401274 <scramble>
  400fb1:	89 c3                	mov    %eax,%ebx
  400fb3:	85 ed                	test   %ebp,%ebp
  400fb5:	75 3d                	jne    400ff4 <initialize_target+0x8c>
  400fb7:	b8 00 00 00 00       	mov    $0x0,%eax
  400fbc:	01 d8                	add    %ebx,%eax
  400fbe:	0f b7 c0             	movzwl %ax,%eax
  400fc1:	8d 04 c5 00 01 00 00 	lea    0x100(,%rax,8),%eax
  400fc8:	89 c0                	mov    %eax,%eax
  400fca:	48 89 05 af 44 20 00 	mov    %rax,0x2044af(%rip)        # 605480 <buf_offset>
  400fd1:	c6 05 50 51 20 00 72 	movb   $0x72,0x205150(%rip)        # 606128 <target_prefix>
  400fd8:	83 3d a9 44 20 00 00 	cmpl   $0x0,0x2044a9(%rip)        # 605488 <notify>
  400fdf:	74 09                	je     400fea <initialize_target+0x82>
  400fe1:	83 3d 20 45 20 00 00 	cmpl   $0x0,0x204520(%rip)        # 605508 <is_checker>
  400fe8:	74 22                	je     40100c <initialize_target+0xa4>
  400fea:	48 81 c4 08 21 00 00 	add    $0x2108,%rsp
  400ff1:	5b                   	pop    %rbx
  400ff2:	5d                   	pop    %rbp
  400ff3:	c3                   	retq   
  400ff4:	bf 00 00 00 00       	mov    $0x0,%edi
  400ff9:	e8 02 fd ff ff       	callq  400d00 <time@plt>
  400ffe:	89 c7                	mov    %eax,%edi
  401000:	e8 fb fb ff ff       	callq  400c00 <srandom@plt>
  401005:	e8 06 fd ff ff       	callq  400d10 <random@plt>
  40100a:	eb b0                	jmp    400fbc <initialize_target+0x54>
  40100c:	48 89 e7             	mov    %rsp,%rdi
  40100f:	be 00 01 00 00       	mov    $0x100,%esi
  401014:	e8 77 fd ff ff       	callq  400d90 <gethostname@plt>
  401019:	89 c3                	mov    %eax,%ebx
  40101b:	85 c0                	test   %eax,%eax
  40101d:	75 24                	jne    401043 <initialize_target+0xdb>
  40101f:	48 63 c3             	movslq %ebx,%rax
  401022:	48 8d 15 37 41 20 00 	lea    0x204137(%rip),%rdx        # 605160 <host_table>
  401029:	48 8b 3c c2          	mov    (%rdx,%rax,8),%rdi
  40102d:	48 85 ff             	test   %rdi,%rdi
  401030:	74 27                	je     401059 <initialize_target+0xf1>
  401032:	48 89 e6             	mov    %rsp,%rsi
  401035:	e8 a6 fb ff ff       	callq  400be0 <strcasecmp@plt>
  40103a:	85 c0                	test   %eax,%eax
  40103c:	74 1b                	je     401059 <initialize_target+0xf1>
  40103e:	83 c3 01             	add    $0x1,%ebx
  401041:	eb dc                	jmp    40101f <initialize_target+0xb7>
  401043:	48 8d 3d 3e 1e 00 00 	lea    0x1e3e(%rip),%rdi        # 402e88 <_IO_stdin_used+0xe8>
  40104a:	e8 e1 fb ff ff       	callq  400c30 <puts@plt>
  40104f:	bf 08 00 00 00       	mov    $0x8,%edi
  401054:	e8 57 fd ff ff       	callq  400db0 <exit@plt>
  401059:	48 8d bc 24 00 01 00 	lea    0x100(%rsp),%rdi
  401060:	00 
  401061:	e8 18 1a 00 00       	callq  402a7e <init_driver>
  401066:	85 c0                	test   %eax,%eax
  401068:	79 80                	jns    400fea <initialize_target+0x82>
  40106a:	48 8d b4 24 00 01 00 	lea    0x100(%rsp),%rsi
  401071:	00 
  401072:	48 8d 3d 47 1e 00 00 	lea    0x1e47(%rip),%rdi        # 402ec0 <_IO_stdin_used+0x120>
  401079:	b8 00 00 00 00       	mov    $0x0,%eax
  40107e:	e8 dd fb ff ff       	callq  400c60 <printf@plt>
  401083:	bf 08 00 00 00       	mov    $0x8,%edi
  401088:	e8 23 fd ff ff       	callq  400db0 <exit@plt>

000000000040108d <main>:
  40108d:	41 56                	push   %r14
  40108f:	41 55                	push   %r13
  401091:	41 54                	push   %r12
  401093:	55                   	push   %rbp
  401094:	53                   	push   %rbx
  401095:	41 89 fc             	mov    %edi,%r12d
  401098:	48 89 f3             	mov    %rsi,%rbx
  40109b:	48 c7 c6 24 1e 40 00 	mov    $0x401e24,%rsi
  4010a2:	bf 0b 00 00 00       	mov    $0xb,%edi
  4010a7:	e8 04 fc ff ff       	callq  400cb0 <signal@plt>
  4010ac:	48 c7 c6 d0 1d 40 00 	mov    $0x401dd0,%rsi
  4010b3:	bf 07 00 00 00       	mov    $0x7,%edi
  4010b8:	e8 f3 fb ff ff       	callq  400cb0 <signal@plt>
  4010bd:	48 c7 c6 78 1e 40 00 	mov    $0x401e78,%rsi
  4010c4:	bf 04 00 00 00       	mov    $0x4,%edi
  4010c9:	e8 e2 fb ff ff       	callq  400cb0 <signal@plt>
  4010ce:	83 3d 33 44 20 00 00 	cmpl   $0x0,0x204433(%rip)        # 605508 <is_checker>
  4010d5:	75 58                	jne    40112f <main+0xa2>
  4010d7:	48 8d 2d a7 1e 00 00 	lea    0x1ea7(%rip),%rbp        # 402f85 <_IO_stdin_used+0x1e5>
  4010de:	48 8b 05 bb 43 20 00 	mov    0x2043bb(%rip),%rax        # 6054a0 <stdin@@GLIBC_2.2.5>
  4010e5:	48 89 05 04 44 20 00 	mov    %rax,0x204404(%rip)        # 6054f0 <infile>
  4010ec:	41 bd 00 00 00 00    	mov    $0x0,%r13d
  4010f2:	41 be 00 00 00 00    	mov    $0x0,%r14d
  4010f8:	48 89 ea             	mov    %rbp,%rdx
  4010fb:	48 89 de             	mov    %rbx,%rsi
  4010fe:	44 89 e7             	mov    %r12d,%edi
  401101:	e8 6a fc ff ff       	callq  400d70 <getopt@plt>
  401106:	3c ff                	cmp    $0xff,%al
  401108:	0f 84 f8 00 00 00    	je     401206 <main+0x179>
  40110e:	0f be f0             	movsbl %al,%esi
  401111:	83 e8 61             	sub    $0x61,%eax
  401114:	3c 10                	cmp    $0x10,%al
  401116:	0f 87 d1 00 00 00    	ja     4011ed <main+0x160>
  40111c:	0f b6 c0             	movzbl %al,%eax
  40111f:	48 8d 15 aa 1e 00 00 	lea    0x1eaa(%rip),%rdx        # 402fd0 <_IO_stdin_used+0x230>
  401126:	48 63 04 82          	movslq (%rdx,%rax,4),%rax
  40112a:	48 01 d0             	add    %rdx,%rax
  40112d:	ff e0                	jmpq   *%rax
  40112f:	48 c7 c6 cc 1e 40 00 	mov    $0x401ecc,%rsi
  401136:	bf 0e 00 00 00       	mov    $0xe,%edi
  40113b:	e8 70 fb ff ff       	callq  400cb0 <signal@plt>
  401140:	bf 05 00 00 00       	mov    $0x5,%edi
  401145:	e8 36 fb ff ff       	callq  400c80 <alarm@plt>
  40114a:	48 8d 2d 39 1e 00 00 	lea    0x1e39(%rip),%rbp        # 402f8a <_IO_stdin_used+0x1ea>
  401151:	eb 8b                	jmp    4010de <main+0x51>
  401153:	48 8b 3b             	mov    (%rbx),%rdi
  401156:	e8 7b fd ff ff       	callq  400ed6 <usage>
  40115b:	48 8d 35 b3 20 00 00 	lea    0x20b3(%rip),%rsi        # 403215 <_IO_stdin_used+0x475>
  401162:	48 8b 3d 3f 43 20 00 	mov    0x20433f(%rip),%rdi        # 6054a8 <optarg@@GLIBC_2.2.5>
  401169:	e8 f2 fb ff ff       	callq  400d60 <fopen@plt>
  40116e:	48 89 05 7b 43 20 00 	mov    %rax,0x20437b(%rip)        # 6054f0 <infile>
  401175:	48 85 c0             	test   %rax,%rax
  401178:	0f 85 7a ff ff ff    	jne    4010f8 <main+0x6b>
  40117e:	48 8b 15 23 43 20 00 	mov    0x204323(%rip),%rdx        # 6054a8 <optarg@@GLIBC_2.2.5>
  401185:	48 8d 35 06 1e 00 00 	lea    0x1e06(%rip),%rsi        # 402f92 <_IO_stdin_used+0x1f2>
  40118c:	48 8b 3d 2d 43 20 00 	mov    0x20432d(%rip),%rdi        # 6054c0 <stderr@@GLIBC_2.2.5>
  401193:	e8 38 fb ff ff       	callq  400cd0 <fprintf@plt>
  401198:	b8 01 00 00 00       	mov    $0x1,%eax
  40119d:	e9 c9 00 00 00       	jmpq   40126b <main+0x1de>
  4011a2:	ba 10 00 00 00       	mov    $0x10,%edx
  4011a7:	be 00 00 00 00       	mov    $0x0,%esi
  4011ac:	48 8b 3d f5 42 20 00 	mov    0x2042f5(%rip),%rdi        # 6054a8 <optarg@@GLIBC_2.2.5>
  4011b3:	e8 c8 fb ff ff       	callq  400d80 <strtoul@plt>
  4011b8:	41 89 c6             	mov    %eax,%r14d
  4011bb:	e9 38 ff ff ff       	jmpq   4010f8 <main+0x6b>
  4011c0:	ba 0a 00 00 00       	mov    $0xa,%edx
  4011c5:	be 00 00 00 00       	mov    $0x0,%esi
  4011ca:	48 8b 3d d7 42 20 00 	mov    0x2042d7(%rip),%rdi        # 6054a8 <optarg@@GLIBC_2.2.5>
  4011d1:	e8 0a fb ff ff       	callq  400ce0 <strtol@plt>
  4011d6:	41 89 c5             	mov    %eax,%r13d
  4011d9:	e9 1a ff ff ff       	jmpq   4010f8 <main+0x6b>
  4011de:	c7 05 a0 42 20 00 00 	movl   $0x0,0x2042a0(%rip)        # 605488 <notify>
  4011e5:	00 00 00 
  4011e8:	e9 0b ff ff ff       	jmpq   4010f8 <main+0x6b>
  4011ed:	48 8d 3d bb 1d 00 00 	lea    0x1dbb(%rip),%rdi        # 402faf <_IO_stdin_used+0x20f>
  4011f4:	b8 00 00 00 00       	mov    $0x0,%eax
  4011f9:	e8 62 fa ff ff       	callq  400c60 <printf@plt>
  4011fe:	48 8b 3b             	mov    (%rbx),%rdi
  401201:	e8 d0 fc ff ff       	callq  400ed6 <usage>
  401206:	be 01 00 00 00       	mov    $0x1,%esi
  40120b:	44 89 ef             	mov    %r13d,%edi
  40120e:	e8 55 fd ff ff       	callq  400f68 <initialize_target>
  401213:	83 3d ee 42 20 00 00 	cmpl   $0x0,0x2042ee(%rip)        # 605508 <is_checker>
  40121a:	74 27                	je     401243 <main+0x1b6>
  40121c:	44 3b 35 dd 42 20 00 	cmp    0x2042dd(%rip),%r14d        # 605500 <authkey>
  401223:	74 1e                	je     401243 <main+0x1b6>
  401225:	44 89 f6             	mov    %r14d,%esi
  401228:	48 8d 3d b9 1c 00 00 	lea    0x1cb9(%rip),%rdi        # 402ee8 <_IO_stdin_used+0x148>
  40122f:	b8 00 00 00 00       	mov    $0x0,%eax
  401234:	e8 27 fa ff ff       	callq  400c60 <printf@plt>
  401239:	b8 00 00 00 00       	mov    $0x0,%eax
  40123e:	e8 5d 08 00 00       	callq  401aa0 <check_fail>
  401243:	8b 35 bb 42 20 00    	mov    0x2042bb(%rip),%esi        # 605504 <cookie>
  401249:	48 8d 3d 72 1d 00 00 	lea    0x1d72(%rip),%rdi        # 402fc2 <_IO_stdin_used+0x222>
  401250:	b8 00 00 00 00       	mov    $0x0,%eax
  401255:	e8 06 fa ff ff       	callq  400c60 <printf@plt>
  40125a:	48 8b 3d 1f 42 20 00 	mov    0x20421f(%rip),%rdi        # 605480 <buf_offset>
  401261:	e8 b8 0c 00 00       	callq  401f1e <launch>
  401266:	b8 00 00 00 00       	mov    $0x0,%eax
  40126b:	5b                   	pop    %rbx
  40126c:	5d                   	pop    %rbp
  40126d:	41 5c                	pop    %r12
  40126f:	41 5d                	pop    %r13
  401271:	41 5e                	pop    %r14
  401273:	c3                   	retq   

0000000000401274 <scramble>:
  401274:	b8 00 00 00 00       	mov    $0x0,%eax
  401279:	eb 11                	jmp    40128c <scramble+0x18>
  40127b:	69 d0 a1 a9 00 00    	imul   $0xa9a1,%eax,%edx
  401281:	01 fa                	add    %edi,%edx
  401283:	89 c1                	mov    %eax,%ecx
  401285:	89 54 8c d0          	mov    %edx,-0x30(%rsp,%rcx,4)
  401289:	83 c0 01             	add    $0x1,%eax
  40128c:	83 f8 09             	cmp    $0x9,%eax
  40128f:	76 ea                	jbe    40127b <scramble+0x7>
  401291:	8b 44 24 d0          	mov    -0x30(%rsp),%eax
  401295:	69 c0 30 5f 00 00    	imul   $0x5f30,%eax,%eax
  40129b:	89 44 24 d0          	mov    %eax,-0x30(%rsp)
  40129f:	8b 44 24 e8          	mov    -0x18(%rsp),%eax
  4012a3:	69 c0 1c 6b 00 00    	imul   $0x6b1c,%eax,%eax
  4012a9:	89 44 24 e8          	mov    %eax,-0x18(%rsp)
  4012ad:	8b 44 24 e8          	mov    -0x18(%rsp),%eax
  4012b1:	69 c0 44 9d 00 00    	imul   $0x9d44,%eax,%eax
  4012b7:	89 44 24 e8          	mov    %eax,-0x18(%rsp)
  4012bb:	8b 44 24 e8          	mov    -0x18(%rsp),%eax
  4012bf:	69 c0 b2 36 00 00    	imul   $0x36b2,%eax,%eax
  4012c5:	89 44 24 e8          	mov    %eax,-0x18(%rsp)
  4012c9:	8b 44 24 e0          	mov    -0x20(%rsp),%eax
  4012cd:	69 c0 aa 52 00 00    	imul   $0x52aa,%eax,%eax
  4012d3:	89 44 24 e0          	mov    %eax,-0x20(%rsp)
  4012d7:	8b 44 24 ec          	mov    -0x14(%rsp),%eax
  4012db:	69 c0 e1 27 00 00    	imul   $0x27e1,%eax,%eax
  4012e1:	89 44 24 ec          	mov    %eax,-0x14(%rsp)
  4012e5:	8b 44 24 f4          	mov    -0xc(%rsp),%eax
  4012e9:	69 c0 21 a9 00 00    	imul   $0xa921,%eax,%eax
  4012ef:	89 44 24 f4          	mov    %eax,-0xc(%rsp)
  4012f3:	8b 44 24 d4          	mov    -0x2c(%rsp),%eax
  4012f7:	69 c0 dd e7 00 00    	imul   $0xe7dd,%eax,%eax
  4012fd:	89 44 24 d4          	mov    %eax,-0x2c(%rsp)
  401301:	8b 44 24 e4          	mov    -0x1c(%rsp),%eax
  401305:	69 c0 3c 1c 00 00    	imul   $0x1c3c,%eax,%eax
  40130b:	89 44 24 e4          	mov    %eax,-0x1c(%rsp)
  40130f:	8b 44 24 e8          	mov    -0x18(%rsp),%eax
  401313:	69 c0 ff 82 00 00    	imul   $0x82ff,%eax,%eax
  401319:	89 44 24 e8          	mov    %eax,-0x18(%rsp)
  40131d:	8b 44 24 d4          	mov    -0x2c(%rsp),%eax
  401321:	69 c0 0a 86 00 00    	imul   $0x860a,%eax,%eax
  401327:	89 44 24 d4          	mov    %eax,-0x2c(%rsp)
  40132b:	8b 44 24 dc          	mov    -0x24(%rsp),%eax
  40132f:	69 c0 19 80 00 00    	imul   $0x8019,%eax,%eax
  401335:	89 44 24 dc          	mov    %eax,-0x24(%rsp)
  401339:	8b 44 24 d4          	mov    -0x2c(%rsp),%eax
  40133d:	69 c0 af d0 00 00    	imul   $0xd0af,%eax,%eax
  401343:	89 44 24 d4          	mov    %eax,-0x2c(%rsp)
  401347:	8b 44 24 e8          	mov    -0x18(%rsp),%eax
  40134b:	69 c0 35 32 00 00    	imul   $0x3235,%eax,%eax
  401351:	89 44 24 e8          	mov    %eax,-0x18(%rsp)
  401355:	8b 44 24 f0          	mov    -0x10(%rsp),%eax
  401359:	69 c0 40 28 00 00    	imul   $0x2840,%eax,%eax
  40135f:	89 44 24 f0          	mov    %eax,-0x10(%rsp)
  401363:	8b 44 24 e0          	mov    -0x20(%rsp),%eax
  401367:	69 c0 d7 c2 00 00    	imul   $0xc2d7,%eax,%eax
  40136d:	89 44 24 e0          	mov    %eax,-0x20(%rsp)
  401371:	8b 44 24 d4          	mov    -0x2c(%rsp),%eax
  401375:	69 c0 da f3 00 00    	imul   $0xf3da,%eax,%eax
  40137b:	89 44 24 d4          	mov    %eax,-0x2c(%rsp)
  40137f:	8b 44 24 d8          	mov    -0x28(%rsp),%eax
  401383:	69 c0 0c a7 00 00    	imul   $0xa70c,%eax,%eax
  401389:	89 44 24 d8          	mov    %eax,-0x28(%rsp)
  40138d:	8b 44 24 d4          	mov    -0x2c(%rsp),%eax
  401391:	69 c0 c3 d6 00 00    	imul   $0xd6c3,%eax,%eax
  401397:	89 44 24 d4          	mov    %eax,-0x2c(%rsp)
  40139b:	8b 44 24 e8          	mov    -0x18(%rsp),%eax
  40139f:	69 c0 7e 67 00 00    	imul   $0x677e,%eax,%eax
  4013a5:	89 44 24 e8          	mov    %eax,-0x18(%rsp)
  4013a9:	8b 44 24 dc          	mov    -0x24(%rsp),%eax
  4013ad:	69 c0 05 a9 00 00    	imul   $0xa905,%eax,%eax
  4013b3:	89 44 24 dc          	mov    %eax,-0x24(%rsp)
  4013b7:	8b 44 24 e4          	mov    -0x1c(%rsp),%eax
  4013bb:	69 c0 31 cc 00 00    	imul   $0xcc31,%eax,%eax
  4013c1:	89 44 24 e4          	mov    %eax,-0x1c(%rsp)
  4013c5:	8b 44 24 d8          	mov    -0x28(%rsp),%eax
  4013c9:	69 c0 72 23 00 00    	imul   $0x2372,%eax,%eax
  4013cf:	89 44 24 d8          	mov    %eax,-0x28(%rsp)
  4013d3:	8b 44 24 e4          	mov    -0x1c(%rsp),%eax
  4013d7:	69 c0 8c d5 00 00    	imul   $0xd58c,%eax,%eax
  4013dd:	89 44 24 e4          	mov    %eax,-0x1c(%rsp)
  4013e1:	8b 44 24 e4          	mov    -0x1c(%rsp),%eax
  4013e5:	69 c0 70 84 00 00    	imul   $0x8470,%eax,%eax
  4013eb:	89 44 24 e4          	mov    %eax,-0x1c(%rsp)
  4013ef:	8b 44 24 f0          	mov    -0x10(%rsp),%eax
  4013f3:	69 c0 83 c9 00 00    	imul   $0xc983,%eax,%eax
  4013f9:	89 44 24 f0          	mov    %eax,-0x10(%rsp)
  4013fd:	8b 44 24 e0          	mov    -0x20(%rsp),%eax
  401401:	69 c0 1d 6e 00 00    	imul   $0x6e1d,%eax,%eax
  401407:	89 44 24 e0          	mov    %eax,-0x20(%rsp)
  40140b:	8b 44 24 f0          	mov    -0x10(%rsp),%eax
  40140f:	69 c0 87 b6 00 00    	imul   $0xb687,%eax,%eax
  401415:	89 44 24 f0          	mov    %eax,-0x10(%rsp)
  401419:	8b 44 24 e8          	mov    -0x18(%rsp),%eax
  40141d:	69 c0 a5 83 00 00    	imul   $0x83a5,%eax,%eax
  401423:	89 44 24 e8          	mov    %eax,-0x18(%rsp)
  401427:	8b 44 24 dc          	mov    -0x24(%rsp),%eax
  40142b:	69 c0 02 58 00 00    	imul   $0x5802,%eax,%eax
  401431:	89 44 24 dc          	mov    %eax,-0x24(%rsp)
  401435:	8b 44 24 dc          	mov    -0x24(%rsp),%eax
  401439:	69 c0 34 5c 00 00    	imul   $0x5c34,%eax,%eax
  40143f:	89 44 24 dc          	mov    %eax,-0x24(%rsp)
  401443:	8b 44 24 f0          	mov    -0x10(%rsp),%eax
  401447:	69 c0 55 33 00 00    	imul   $0x3355,%eax,%eax
  40144d:	89 44 24 f0          	mov    %eax,-0x10(%rsp)
  401451:	8b 44 24 d0          	mov    -0x30(%rsp),%eax
  401455:	69 c0 cd 48 00 00    	imul   $0x48cd,%eax,%eax
  40145b:	89 44 24 d0          	mov    %eax,-0x30(%rsp)
  40145f:	8b 44 24 e0          	mov    -0x20(%rsp),%eax
  401463:	69 c0 2c e1 00 00    	imul   $0xe12c,%eax,%eax
  401469:	89 44 24 e0          	mov    %eax,-0x20(%rsp)
  40146d:	8b 44 24 d0          	mov    -0x30(%rsp),%eax
  401471:	69 c0 21 b8 00 00    	imul   $0xb821,%eax,%eax
  401477:	89 44 24 d0          	mov    %eax,-0x30(%rsp)
  40147b:	8b 44 24 f0          	mov    -0x10(%rsp),%eax
  40147f:	69 c0 fe 48 00 00    	imul   $0x48fe,%eax,%eax
  401485:	89 44 24 f0          	mov    %eax,-0x10(%rsp)
  401489:	8b 44 24 dc          	mov    -0x24(%rsp),%eax
  40148d:	69 c0 0a d8 00 00    	imul   $0xd80a,%eax,%eax
  401493:	89 44 24 dc          	mov    %eax,-0x24(%rsp)
  401497:	8b 44 24 d0          	mov    -0x30(%rsp),%eax
  40149b:	69 c0 4d b3 00 00    	imul   $0xb34d,%eax,%eax
  4014a1:	89 44 24 d0          	mov    %eax,-0x30(%rsp)
  4014a5:	8b 44 24 e0          	mov    -0x20(%rsp),%eax
  4014a9:	69 c0 3e c9 00 00    	imul   $0xc93e,%eax,%eax
  4014af:	89 44 24 e0          	mov    %eax,-0x20(%rsp)
  4014b3:	8b 44 24 e0          	mov    -0x20(%rsp),%eax
  4014b7:	69 c0 2b 3b 00 00    	imul   $0x3b2b,%eax,%eax
  4014bd:	89 44 24 e0          	mov    %eax,-0x20(%rsp)
  4014c1:	8b 44 24 d4          	mov    -0x2c(%rsp),%eax
  4014c5:	69 c0 65 e1 00 00    	imul   $0xe165,%eax,%eax
  4014cb:	89 44 24 d4          	mov    %eax,-0x2c(%rsp)
  4014cf:	8b 44 24 d0          	mov    -0x30(%rsp),%eax
  4014d3:	69 c0 28 58 00 00    	imul   $0x5828,%eax,%eax
  4014d9:	89 44 24 d0          	mov    %eax,-0x30(%rsp)
  4014dd:	8b 44 24 ec          	mov    -0x14(%rsp),%eax
  4014e1:	69 c0 4b 4e 00 00    	imul   $0x4e4b,%eax,%eax
  4014e7:	89 44 24 ec          	mov    %eax,-0x14(%rsp)
  4014eb:	8b 44 24 dc          	mov    -0x24(%rsp),%eax
  4014ef:	69 c0 4e 8e 00 00    	imul   $0x8e4e,%eax,%eax
  4014f5:	89 44 24 dc          	mov    %eax,-0x24(%rsp)
  4014f9:	8b 44 24 e8          	mov    -0x18(%rsp),%eax
  4014fd:	69 c0 6c f7 00 00    	imul   $0xf76c,%eax,%eax
  401503:	89 44 24 e8          	mov    %eax,-0x18(%rsp)
  401507:	8b 44 24 e0          	mov    -0x20(%rsp),%eax
  40150b:	69 c0 d6 7d 00 00    	imul   $0x7dd6,%eax,%eax
  401511:	89 44 24 e0          	mov    %eax,-0x20(%rsp)
  401515:	8b 44 24 e8          	mov    -0x18(%rsp),%eax
  401519:	69 c0 2a 01 00 00    	imul   $0x12a,%eax,%eax
  40151f:	89 44 24 e8          	mov    %eax,-0x18(%rsp)
  401523:	8b 44 24 ec          	mov    -0x14(%rsp),%eax
  401527:	69 c0 af a3 00 00    	imul   $0xa3af,%eax,%eax
  40152d:	89 44 24 ec          	mov    %eax,-0x14(%rsp)
  401531:	8b 44 24 e4          	mov    -0x1c(%rsp),%eax
  401535:	69 c0 8e 8b 00 00    	imul   $0x8b8e,%eax,%eax
  40153b:	89 44 24 e4          	mov    %eax,-0x1c(%rsp)
  40153f:	8b 44 24 ec          	mov    -0x14(%rsp),%eax
  401543:	69 c0 87 69 00 00    	imul   $0x6987,%eax,%eax
  401549:	89 44 24 ec          	mov    %eax,-0x14(%rsp)
  40154d:	8b 44 24 d8          	mov    -0x28(%rsp),%eax
  401551:	69 c0 86 cd 00 00    	imul   $0xcd86,%eax,%eax
  401557:	89 44 24 d8          	mov    %eax,-0x28(%rsp)
  40155b:	8b 44 24 e0          	mov    -0x20(%rsp),%eax
  40155f:	69 c0 d5 a4 00 00    	imul   $0xa4d5,%eax,%eax
  401565:	89 44 24 e0          	mov    %eax,-0x20(%rsp)
  401569:	8b 44 24 d4          	mov    -0x2c(%rsp),%eax
  40156d:	69 c0 b5 c7 00 00    	imul   $0xc7b5,%eax,%eax
  401573:	89 44 24 d4          	mov    %eax,-0x2c(%rsp)
  401577:	8b 44 24 dc          	mov    -0x24(%rsp),%eax
  40157b:	69 c0 0c a1 00 00    	imul   $0xa10c,%eax,%eax
  401581:	89 44 24 dc          	mov    %eax,-0x24(%rsp)
  401585:	8b 44 24 e0          	mov    -0x20(%rsp),%eax
  401589:	69 c0 fd e0 00 00    	imul   $0xe0fd,%eax,%eax
  40158f:	89 44 24 e0          	mov    %eax,-0x20(%rsp)
  401593:	8b 44 24 f0          	mov    -0x10(%rsp),%eax
  401597:	69 c0 a1 de 00 00    	imul   $0xdea1,%eax,%eax
  40159d:	89 44 24 f0          	mov    %eax,-0x10(%rsp)
  4015a1:	8b 44 24 e4          	mov    -0x1c(%rsp),%eax
  4015a5:	69 c0 e7 e0 00 00    	imul   $0xe0e7,%eax,%eax
  4015ab:	89 44 24 e4          	mov    %eax,-0x1c(%rsp)
  4015af:	8b 44 24 d8          	mov    -0x28(%rsp),%eax
  4015b3:	69 c0 e5 11 00 00    	imul   $0x11e5,%eax,%eax
  4015b9:	89 44 24 d8          	mov    %eax,-0x28(%rsp)
  4015bd:	8b 44 24 ec          	mov    -0x14(%rsp),%eax
  4015c1:	69 c0 79 45 00 00    	imul   $0x4579,%eax,%eax
  4015c7:	89 44 24 ec          	mov    %eax,-0x14(%rsp)
  4015cb:	8b 44 24 d4          	mov    -0x2c(%rsp),%eax
  4015cf:	69 c0 23 01 00 00    	imul   $0x123,%eax,%eax
  4015d5:	89 44 24 d4          	mov    %eax,-0x2c(%rsp)
  4015d9:	8b 44 24 e0          	mov    -0x20(%rsp),%eax
  4015dd:	69 c0 84 86 00 00    	imul   $0x8684,%eax,%eax
  4015e3:	89 44 24 e0          	mov    %eax,-0x20(%rsp)
  4015e7:	8b 44 24 f0          	mov    -0x10(%rsp),%eax
  4015eb:	69 c0 85 90 00 00    	imul   $0x9085,%eax,%eax
  4015f1:	89 44 24 f0          	mov    %eax,-0x10(%rsp)
  4015f5:	8b 44 24 d0          	mov    -0x30(%rsp),%eax
  4015f9:	69 c0 26 30 00 00    	imul   $0x3026,%eax,%eax
  4015ff:	89 44 24 d0          	mov    %eax,-0x30(%rsp)
  401603:	8b 44 24 f0          	mov    -0x10(%rsp),%eax
  401607:	69 c0 a5 d1 00 00    	imul   $0xd1a5,%eax,%eax
  40160d:	89 44 24 f0          	mov    %eax,-0x10(%rsp)
  401611:	8b 44 24 f0          	mov    -0x10(%rsp),%eax
  401615:	69 c0 10 b9 00 00    	imul   $0xb910,%eax,%eax
  40161b:	89 44 24 f0          	mov    %eax,-0x10(%rsp)
  40161f:	8b 44 24 e0          	mov    -0x20(%rsp),%eax
  401623:	69 c0 63 ff 00 00    	imul   $0xff63,%eax,%eax
  401629:	89 44 24 e0          	mov    %eax,-0x20(%rsp)
  40162d:	8b 44 24 e0          	mov    -0x20(%rsp),%eax
  401631:	69 c0 b2 ed 00 00    	imul   $0xedb2,%eax,%eax
  401637:	89 44 24 e0          	mov    %eax,-0x20(%rsp)
  40163b:	8b 44 24 d0          	mov    -0x30(%rsp),%eax
  40163f:	69 c0 26 2c 00 00    	imul   $0x2c26,%eax,%eax
  401645:	89 44 24 d0          	mov    %eax,-0x30(%rsp)
  401649:	8b 44 24 e8          	mov    -0x18(%rsp),%eax
  40164d:	69 c0 5b fc 00 00    	imul   $0xfc5b,%eax,%eax
  401653:	89 44 24 e8          	mov    %eax,-0x18(%rsp)
  401657:	8b 44 24 e0          	mov    -0x20(%rsp),%eax
  40165b:	69 c0 5b 46 00 00    	imul   $0x465b,%eax,%eax
  401661:	89 44 24 e0          	mov    %eax,-0x20(%rsp)
  401665:	8b 44 24 e4          	mov    -0x1c(%rsp),%eax
  401669:	69 c0 6a a9 00 00    	imul   $0xa96a,%eax,%eax
  40166f:	89 44 24 e4          	mov    %eax,-0x1c(%rsp)
  401673:	8b 44 24 e4          	mov    -0x1c(%rsp),%eax
  401677:	69 c0 bb 9f 00 00    	imul   $0x9fbb,%eax,%eax
  40167d:	89 44 24 e4          	mov    %eax,-0x1c(%rsp)
  401681:	8b 44 24 d8          	mov    -0x28(%rsp),%eax
  401685:	69 c0 c6 5b 00 00    	imul   $0x5bc6,%eax,%eax
  40168b:	89 44 24 d8          	mov    %eax,-0x28(%rsp)
  40168f:	8b 44 24 ec          	mov    -0x14(%rsp),%eax
  401693:	69 c0 84 b9 00 00    	imul   $0xb984,%eax,%eax
  401699:	89 44 24 ec          	mov    %eax,-0x14(%rsp)
  40169d:	8b 44 24 e4          	mov    -0x1c(%rsp),%eax
  4016a1:	69 c0 d3 51 00 00    	imul   $0x51d3,%eax,%eax
  4016a7:	89 44 24 e4          	mov    %eax,-0x1c(%rsp)
  4016ab:	8b 44 24 ec          	mov    -0x14(%rsp),%eax
  4016af:	69 c0 24 de 00 00    	imul   $0xde24,%eax,%eax
  4016b5:	89 44 24 ec          	mov    %eax,-0x14(%rsp)
  4016b9:	8b 44 24 f0          	mov    -0x10(%rsp),%eax
  4016bd:	69 c0 a1 39 00 00    	imul   $0x39a1,%eax,%eax
  4016c3:	89 44 24 f0          	mov    %eax,-0x10(%rsp)
  4016c7:	8b 44 24 dc          	mov    -0x24(%rsp),%eax
  4016cb:	69 c0 05 60 00 00    	imul   $0x6005,%eax,%eax
  4016d1:	89 44 24 dc          	mov    %eax,-0x24(%rsp)
  4016d5:	8b 44 24 d8          	mov    -0x28(%rsp),%eax
  4016d9:	69 c0 de a2 00 00    	imul   $0xa2de,%eax,%eax
  4016df:	89 44 24 d8          	mov    %eax,-0x28(%rsp)
  4016e3:	8b 44 24 f0          	mov    -0x10(%rsp),%eax
  4016e7:	69 c0 7b 25 00 00    	imul   $0x257b,%eax,%eax
  4016ed:	89 44 24 f0          	mov    %eax,-0x10(%rsp)
  4016f1:	8b 44 24 f0          	mov    -0x10(%rsp),%eax
  4016f5:	69 c0 d7 6c 00 00    	imul   $0x6cd7,%eax,%eax
  4016fb:	89 44 24 f0          	mov    %eax,-0x10(%rsp)
  4016ff:	8b 44 24 e4          	mov    -0x1c(%rsp),%eax
  401703:	69 c0 84 e2 00 00    	imul   $0xe284,%eax,%eax
  401709:	89 44 24 e4          	mov    %eax,-0x1c(%rsp)
  40170d:	8b 44 24 d8          	mov    -0x28(%rsp),%eax
  401711:	69 c0 17 c9 00 00    	imul   $0xc917,%eax,%eax
  401717:	89 44 24 d8          	mov    %eax,-0x28(%rsp)
  40171b:	8b 44 24 d0          	mov    -0x30(%rsp),%eax
  40171f:	69 c0 f1 0f 00 00    	imul   $0xff1,%eax,%eax
  401725:	89 44 24 d0          	mov    %eax,-0x30(%rsp)
  401729:	8b 44 24 d4          	mov    -0x2c(%rsp),%eax
  40172d:	69 c0 dd db 00 00    	imul   $0xdbdd,%eax,%eax
  401733:	89 44 24 d4          	mov    %eax,-0x2c(%rsp)
  401737:	8b 44 24 d4          	mov    -0x2c(%rsp),%eax
  40173b:	69 c0 cb a2 00 00    	imul   $0xa2cb,%eax,%eax
  401741:	89 44 24 d4          	mov    %eax,-0x2c(%rsp)
  401745:	ba 00 00 00 00       	mov    $0x0,%edx
  40174a:	b8 00 00 00 00       	mov    $0x0,%eax
  40174f:	eb 0b                	jmp    40175c <scramble+0x4e8>
  401751:	89 d1                	mov    %edx,%ecx
  401753:	8b 4c 8c d0          	mov    -0x30(%rsp,%rcx,4),%ecx
  401757:	01 c8                	add    %ecx,%eax
  401759:	83 c2 01             	add    $0x1,%edx
  40175c:	83 fa 09             	cmp    $0x9,%edx
  40175f:	76 f0                	jbe    401751 <scramble+0x4dd>
  401761:	f3 c3                	repz retq 

0000000000401763 <getbuf>:
  401763:	48 83 ec 28          	sub    $0x28,%rsp
  401767:	48 89 e7             	mov    %rsp,%rdi
  40176a:	e8 64 03 00 00       	callq  401ad3 <Gets>
  40176f:	b8 01 00 00 00       	mov    $0x1,%eax
  401774:	48 83 c4 28          	add    $0x28,%rsp
  401778:	c3                   	retq   

0000000000401779 <touch1>:
  401779:	48 83 ec 08          	sub    $0x8,%rsp
  40177d:	c7 05 75 3d 20 00 01 	movl   $0x1,0x203d75(%rip)        # 6054fc <vlevel>
  401784:	00 00 00 
  401787:	48 8d 3d e0 18 00 00 	lea    0x18e0(%rip),%rdi        # 40306e <_IO_stdin_used+0x2ce>
  40178e:	e8 9d f4 ff ff       	callq  400c30 <puts@plt>
  401793:	bf 01 00 00 00       	mov    $0x1,%edi
  401798:	e8 4d 05 00 00       	callq  401cea <validate>
  40179d:	bf 00 00 00 00       	mov    $0x0,%edi
  4017a2:	e8 09 f6 ff ff       	callq  400db0 <exit@plt>

00000000004017a7 <touch2>:
  4017a7:	48 83 ec 08          	sub    $0x8,%rsp
  4017ab:	89 fe                	mov    %edi,%esi
  4017ad:	c7 05 45 3d 20 00 02 	movl   $0x2,0x203d45(%rip)        # 6054fc <vlevel>
  4017b4:	00 00 00 
  4017b7:	39 3d 47 3d 20 00    	cmp    %edi,0x203d47(%rip)        # 605504 <cookie>
  4017bd:	74 25                	je     4017e4 <touch2+0x3d>
  4017bf:	48 8d 3d f2 18 00 00 	lea    0x18f2(%rip),%rdi        # 4030b8 <_IO_stdin_used+0x318>
  4017c6:	b8 00 00 00 00       	mov    $0x0,%eax
  4017cb:	e8 90 f4 ff ff       	callq  400c60 <printf@plt>
  4017d0:	bf 02 00 00 00       	mov    $0x2,%edi
  4017d5:	e8 ce 05 00 00       	callq  401da8 <fail>
  4017da:	bf 00 00 00 00       	mov    $0x0,%edi
  4017df:	e8 cc f5 ff ff       	callq  400db0 <exit@plt>
  4017e4:	48 8d 3d a5 18 00 00 	lea    0x18a5(%rip),%rdi        # 403090 <_IO_stdin_used+0x2f0>
  4017eb:	b8 00 00 00 00       	mov    $0x0,%eax
  4017f0:	e8 6b f4 ff ff       	callq  400c60 <printf@plt>
  4017f5:	bf 02 00 00 00       	mov    $0x2,%edi
  4017fa:	e8 eb 04 00 00       	callq  401cea <validate>
  4017ff:	eb d9                	jmp    4017da <touch2+0x33>

0000000000401801 <hexmatch>:
  401801:	41 54                	push   %r12
  401803:	55                   	push   %rbp
  401804:	53                   	push   %rbx
  401805:	48 83 ec 70          	sub    $0x70,%rsp
  401809:	89 fd                	mov    %edi,%ebp
  40180b:	48 89 f3             	mov    %rsi,%rbx
  40180e:	e8 fd f4 ff ff       	callq  400d10 <random@plt>
  401813:	48 89 c1             	mov    %rax,%rcx
  401816:	48 ba 0b d7 a3 70 3d 	movabs $0xa3d70a3d70a3d70b,%rdx
  40181d:	0a d7 a3 
  401820:	48 f7 ea             	imul   %rdx
  401823:	48 01 ca             	add    %rcx,%rdx
  401826:	48 c1 fa 06          	sar    $0x6,%rdx
  40182a:	48 89 c8             	mov    %rcx,%rax
  40182d:	48 c1 f8 3f          	sar    $0x3f,%rax
  401831:	48 29 c2             	sub    %rax,%rdx
  401834:	48 8d 04 92          	lea    (%rdx,%rdx,4),%rax
  401838:	48 8d 14 80          	lea    (%rax,%rax,4),%rdx
  40183c:	48 8d 04 95 00 00 00 	lea    0x0(,%rdx,4),%rax
  401843:	00 
  401844:	48 29 c1             	sub    %rax,%rcx
  401847:	4c 8d 24 0c          	lea    (%rsp,%rcx,1),%r12
  40184b:	89 ea                	mov    %ebp,%edx
  40184d:	48 8d 35 37 18 00 00 	lea    0x1837(%rip),%rsi        # 40308b <_IO_stdin_used+0x2eb>
  401854:	4c 89 e7             	mov    %r12,%rdi
  401857:	b8 00 00 00 00       	mov    $0x0,%eax
  40185c:	e8 3f f5 ff ff       	callq  400da0 <sprintf@plt>
  401861:	ba 09 00 00 00       	mov    $0x9,%edx
  401866:	4c 89 e6             	mov    %r12,%rsi
  401869:	48 89 df             	mov    %rbx,%rdi
  40186c:	e8 9f f3 ff ff       	callq  400c10 <strncmp@plt>
  401871:	85 c0                	test   %eax,%eax
  401873:	0f 94 c0             	sete   %al
  401876:	0f b6 c0             	movzbl %al,%eax
  401879:	48 83 c4 70          	add    $0x70,%rsp
  40187d:	5b                   	pop    %rbx
  40187e:	5d                   	pop    %rbp
  40187f:	41 5c                	pop    %r12
  401881:	c3                   	retq   

0000000000401882 <touch3>:
  401882:	53                   	push   %rbx
  401883:	48 89 fb             	mov    %rdi,%rbx
  401886:	c7 05 6c 3c 20 00 03 	movl   $0x3,0x203c6c(%rip)        # 6054fc <vlevel>
  40188d:	00 00 00 
  401890:	48 89 fe             	mov    %rdi,%rsi
  401893:	8b 3d 6b 3c 20 00    	mov    0x203c6b(%rip),%edi        # 605504 <cookie>
  401899:	e8 63 ff ff ff       	callq  401801 <hexmatch>
  40189e:	85 c0                	test   %eax,%eax
  4018a0:	74 28                	je     4018ca <touch3+0x48>
  4018a2:	48 89 de             	mov    %rbx,%rsi
  4018a5:	48 8d 3d 34 18 00 00 	lea    0x1834(%rip),%rdi        # 4030e0 <_IO_stdin_used+0x340>
  4018ac:	b8 00 00 00 00       	mov    $0x0,%eax
  4018b1:	e8 aa f3 ff ff       	callq  400c60 <printf@plt>
  4018b6:	bf 03 00 00 00       	mov    $0x3,%edi
  4018bb:	e8 2a 04 00 00       	callq  401cea <validate>
  4018c0:	bf 00 00 00 00       	mov    $0x0,%edi
  4018c5:	e8 e6 f4 ff ff       	callq  400db0 <exit@plt>
  4018ca:	48 89 de             	mov    %rbx,%rsi
  4018cd:	48 8d 3d 34 18 00 00 	lea    0x1834(%rip),%rdi        # 403108 <_IO_stdin_used+0x368>
  4018d4:	b8 00 00 00 00       	mov    $0x0,%eax
  4018d9:	e8 82 f3 ff ff       	callq  400c60 <printf@plt>
  4018de:	bf 03 00 00 00       	mov    $0x3,%edi
  4018e3:	e8 c0 04 00 00       	callq  401da8 <fail>
  4018e8:	eb d6                	jmp    4018c0 <touch3+0x3e>

00000000004018ea <test>:
  4018ea:	48 83 ec 08          	sub    $0x8,%rsp
  4018ee:	b8 00 00 00 00       	mov    $0x0,%eax
  4018f3:	e8 6b fe ff ff       	callq  401763 <getbuf>
  4018f8:	89 c6                	mov    %eax,%esi
  4018fa:	48 8d 3d 2f 18 00 00 	lea    0x182f(%rip),%rdi        # 403130 <_IO_stdin_used+0x390>
  401901:	b8 00 00 00 00       	mov    $0x0,%eax
  401906:	e8 55 f3 ff ff       	callq  400c60 <printf@plt>
  40190b:	48 83 c4 08          	add    $0x8,%rsp
  40190f:	c3                   	retq   

0000000000401910 <start_farm>:
  401910:	b8 01 00 00 00       	mov    $0x1,%eax
  401915:	c3                   	retq   

0000000000401916 <getval_206>:
  401916:	b8 48 89 c7 94       	mov    $0x94c78948,%eax
  40191b:	c3                   	retq   

000000000040191c <setval_182>:
  40191c:	c7 07 48 89 c7 c3    	movl   $0xc3c78948,(%rdi)
  401922:	c3                   	retq   

0000000000401923 <setval_280>:
  401923:	c7 07 af 5a 12 58    	movl   $0x58125aaf,(%rdi)
  401929:	c3                   	retq   

000000000040192a <getval_335>:
  40192a:	b8 3a 58 90 90       	mov    $0x9090583a,%eax
  40192f:	c3                   	retq   

0000000000401930 <getval_180>:
  401930:	b8 25 58 94 90       	mov    $0x90945825,%eax
  401935:	c3                   	retq   

0000000000401936 <getval_497>:
  401936:	b8 48 89 c7 c3       	mov    $0xc3c78948,%eax
  40193b:	c3                   	retq   

000000000040193c <getval_361>:
  40193c:	b8 58 90 90 c1       	mov    $0xc1909058,%eax
  401941:	c3                   	retq   

0000000000401942 <getval_144>:
  401942:	b8 48 8b c7 c3       	mov    $0xc3c78b48,%eax
  401947:	c3                   	retq   

0000000000401948 <mid_farm>:
  401948:	b8 01 00 00 00       	mov    $0x1,%eax
  40194d:	c3                   	retq   

000000000040194e <add_xy>:
  40194e:	48 8d 04 37          	lea    (%rdi,%rsi,1),%rax
  401952:	c3                   	retq   

0000000000401953 <setval_135>:
  401953:	c7 07 89 d1 90 90    	movl   $0x9090d189,(%rdi)
  401959:	c3                   	retq   

000000000040195a <getval_490>:
  40195a:	b8 89 ce 20 c9       	mov    $0xc920ce89,%eax
  40195f:	c3                   	retq   

0000000000401960 <addval_225>:
  401960:	8d 87 8b ce 84 c9    	lea    -0x367b3175(%rdi),%eax
  401966:	c3                   	retq   

0000000000401967 <setval_122>:
  401967:	c7 07 88 d1 08 c9    	movl   $0xc908d188,(%rdi)
  40196d:	c3                   	retq   

000000000040196e <addval_192>:
  40196e:	8d 87 88 d1 90 90    	lea    -0x6f6f2e78(%rdi),%eax
  401974:	c3                   	retq   

0000000000401975 <getval_496>:
  401975:	b8 48 89 e0 c2       	mov    $0xc2e08948,%eax
  40197a:	c3                   	retq   

000000000040197b <getval_134>:
  40197b:	b8 89 ce 38 c9       	mov    $0xc938ce89,%eax
  401980:	c3                   	retq   

0000000000401981 <setval_320>:
  401981:	c7 07 89 c2 90 c3    	movl   $0xc390c289,(%rdi)
  401987:	c3                   	retq   

0000000000401988 <getval_428>:
  401988:	b8 a9 d1 20 db       	mov    $0xdb20d1a9,%eax
  40198d:	c3                   	retq   

000000000040198e <addval_325>:
  40198e:	8d 87 89 ce 78 c9    	lea    -0x36873177(%rdi),%eax
  401994:	c3                   	retq   

0000000000401995 <addval_102>:
  401995:	8d 87 89 c2 84 c9    	lea    -0x367b3d77(%rdi),%eax
  40199b:	c3                   	retq   

000000000040199c <setval_270>:
  40199c:	c7 07 89 4c 89 e0    	movl   $0xe0894c89,(%rdi)
  4019a2:	c3                   	retq   

00000000004019a3 <getval_165>:
  4019a3:	b8 c9 c2 84 d2       	mov    $0xd284c2c9,%eax
  4019a8:	c3                   	retq   

00000000004019a9 <setval_284>:
  4019a9:	c7 07 89 c2 94 c9    	movl   $0xc994c289,(%rdi)
  4019af:	c3                   	retq   

00000000004019b0 <setval_290>:
  4019b0:	c7 07 48 89 e0 92    	movl   $0x92e08948,(%rdi)
  4019b6:	c3                   	retq   

00000000004019b7 <setval_169>:
  4019b7:	c7 07 89 d1 84 c9    	movl   $0xc984d189,(%rdi)
  4019bd:	c3                   	retq   

00000000004019be <setval_246>:
  4019be:	c7 07 8b ce 38 db    	movl   $0xdb38ce8b,(%rdi)
  4019c4:	c3                   	retq   

00000000004019c5 <addval_471>:
  4019c5:	8d 87 be 89 d1 94    	lea    -0x6b2e7642(%rdi),%eax
  4019cb:	c3                   	retq   

00000000004019cc <getval_119>:
  4019cc:	b8 89 c2 28 c0       	mov    $0xc028c289,%eax
  4019d1:	c3                   	retq   

00000000004019d2 <getval_103>:
  4019d2:	b8 48 89 e0 91       	mov    $0x91e08948,%eax
  4019d7:	c3                   	retq   

00000000004019d8 <getval_429>:
  4019d8:	b8 4f 4d 09 d1       	mov    $0xd1094d4f,%eax
  4019dd:	c3                   	retq   

00000000004019de <addval_219>:
  4019de:	8d 87 48 8d e0 c3    	lea    -0x3c1f72b8(%rdi),%eax
  4019e4:	c3                   	retq   

00000000004019e5 <addval_332>:
  4019e5:	8d 87 8b ce 90 90    	lea    -0x6f6f3175(%rdi),%eax
  4019eb:	c3                   	retq   

00000000004019ec <addval_479>:
  4019ec:	8d 87 48 89 e0 90    	lea    -0x6f1f76b8(%rdi),%eax
  4019f2:	c3                   	retq   

00000000004019f3 <getval_151>:
  4019f3:	b8 81 c2 38 c0       	mov    $0xc038c281,%eax
  4019f8:	c3                   	retq   

00000000004019f9 <setval_141>:
  4019f9:	c7 07 37 09 d1 90    	movl   $0x90d10937,(%rdi)
  4019ff:	c3                   	retq   

0000000000401a00 <addval_311>:
  401a00:	8d 87 21 c9 c2 90    	lea    -0x6f3d36df(%rdi),%eax
  401a06:	c3                   	retq   

0000000000401a07 <addval_216>:
  401a07:	8d 87 48 09 e0 90    	lea    -0x6f1ff6b8(%rdi),%eax
  401a0d:	c3                   	retq   

0000000000401a0e <setval_468>:
  401a0e:	c7 07 89 c2 18 d2    	movl   $0xd218c289,(%rdi)
  401a14:	c3                   	retq   

0000000000401a15 <setval_201>:
  401a15:	c7 07 54 48 89 e0    	movl   $0xe0894854,(%rdi)
  401a1b:	c3                   	retq   

0000000000401a1c <addval_424>:
  401a1c:	8d 87 10 89 ce 92    	lea    -0x6d3176f0(%rdi),%eax
  401a22:	c3                   	retq   

0000000000401a23 <addval_436>:
  401a23:	8d 87 88 ce 90 c3    	lea    -0x3c6f3178(%rdi),%eax
  401a29:	c3                   	retq   

0000000000401a2a <end_farm>:
  401a2a:	b8 01 00 00 00       	mov    $0x1,%eax
  401a2f:	c3                   	retq   

0000000000401a30 <save_char>:
  401a30:	8b 05 ee 46 20 00    	mov    0x2046ee(%rip),%eax        # 606124 <gets_cnt>
  401a36:	3d ff 03 00 00       	cmp    $0x3ff,%eax
  401a3b:	7f 4a                	jg     401a87 <save_char+0x57>
  401a3d:	8d 14 40             	lea    (%rax,%rax,2),%edx
  401a40:	89 f9                	mov    %edi,%ecx
  401a42:	c0 e9 04             	shr    $0x4,%cl
  401a45:	4c 8d 05 04 1a 00 00 	lea    0x1a04(%rip),%r8        # 403450 <trans_char>
  401a4c:	83 e1 0f             	and    $0xf,%ecx
  401a4f:	45 0f b6 0c 08       	movzbl (%r8,%rcx,1),%r9d
  401a54:	48 8d 0d c5 3a 20 00 	lea    0x203ac5(%rip),%rcx        # 605520 <gets_buf>
  401a5b:	48 63 f2             	movslq %edx,%rsi
  401a5e:	44 88 0c 31          	mov    %r9b,(%rcx,%rsi,1)
  401a62:	8d 72 01             	lea    0x1(%rdx),%esi
  401a65:	83 e7 0f             	and    $0xf,%edi
  401a68:	41 0f b6 3c 38       	movzbl (%r8,%rdi,1),%edi
  401a6d:	48 63 f6             	movslq %esi,%rsi
  401a70:	40 88 3c 31          	mov    %dil,(%rcx,%rsi,1)
  401a74:	83 c2 02             	add    $0x2,%edx
  401a77:	48 63 d2             	movslq %edx,%rdx
  401a7a:	c6 04 11 20          	movb   $0x20,(%rcx,%rdx,1)
  401a7e:	83 c0 01             	add    $0x1,%eax
  401a81:	89 05 9d 46 20 00    	mov    %eax,0x20469d(%rip)        # 606124 <gets_cnt>
  401a87:	f3 c3                	repz retq 

0000000000401a89 <save_term>:
  401a89:	8b 05 95 46 20 00    	mov    0x204695(%rip),%eax        # 606124 <gets_cnt>
  401a8f:	8d 04 40             	lea    (%rax,%rax,2),%eax
  401a92:	48 98                	cltq   
  401a94:	48 8d 15 85 3a 20 00 	lea    0x203a85(%rip),%rdx        # 605520 <gets_buf>
  401a9b:	c6 04 02 00          	movb   $0x0,(%rdx,%rax,1)
  401a9f:	c3                   	retq   

0000000000401aa0 <check_fail>:
  401aa0:	48 83 ec 08          	sub    $0x8,%rsp
  401aa4:	0f be 35 7d 46 20 00 	movsbl 0x20467d(%rip),%esi        # 606128 <target_prefix>
  401aab:	48 8d 0d 6e 3a 20 00 	lea    0x203a6e(%rip),%rcx        # 605520 <gets_buf>
  401ab2:	8b 15 40 3a 20 00    	mov    0x203a40(%rip),%edx        # 6054f8 <check_level>
  401ab8:	48 8d 3d 94 16 00 00 	lea    0x1694(%rip),%rdi        # 403153 <_IO_stdin_used+0x3b3>
  401abf:	b8 00 00 00 00       	mov    $0x0,%eax
  401ac4:	e8 97 f1 ff ff       	callq  400c60 <printf@plt>
  401ac9:	bf 01 00 00 00       	mov    $0x1,%edi
  401ace:	e8 dd f2 ff ff       	callq  400db0 <exit@plt>

0000000000401ad3 <Gets>:
  401ad3:	41 54                	push   %r12
  401ad5:	55                   	push   %rbp
  401ad6:	53                   	push   %rbx
  401ad7:	49 89 fc             	mov    %rdi,%r12
  401ada:	c7 05 40 46 20 00 00 	movl   $0x0,0x204640(%rip)        # 606124 <gets_cnt>
  401ae1:	00 00 00 
  401ae4:	48 89 fb             	mov    %rdi,%rbx
  401ae7:	eb 11                	jmp    401afa <Gets+0x27>
  401ae9:	48 8d 6b 01          	lea    0x1(%rbx),%rbp
  401aed:	88 03                	mov    %al,(%rbx)
  401aef:	0f b6 f8             	movzbl %al,%edi
  401af2:	e8 39 ff ff ff       	callq  401a30 <save_char>
  401af7:	48 89 eb             	mov    %rbp,%rbx
  401afa:	48 8b 3d ef 39 20 00 	mov    0x2039ef(%rip),%rdi        # 6054f0 <infile>
  401b01:	e8 1a f2 ff ff       	callq  400d20 <_IO_getc@plt>
  401b06:	83 f8 ff             	cmp    $0xffffffff,%eax
  401b09:	74 05                	je     401b10 <Gets+0x3d>
  401b0b:	83 f8 0a             	cmp    $0xa,%eax
  401b0e:	75 d9                	jne    401ae9 <Gets+0x16>
  401b10:	c6 03 00             	movb   $0x0,(%rbx)
  401b13:	b8 00 00 00 00       	mov    $0x0,%eax
  401b18:	e8 6c ff ff ff       	callq  401a89 <save_term>
  401b1d:	4c 89 e0             	mov    %r12,%rax
  401b20:	5b                   	pop    %rbx
  401b21:	5d                   	pop    %rbp
  401b22:	41 5c                	pop    %r12
  401b24:	c3                   	retq   

0000000000401b25 <notify_server>:
  401b25:	83 3d dc 39 20 00 00 	cmpl   $0x0,0x2039dc(%rip)        # 605508 <is_checker>
  401b2c:	0f 85 de 00 00 00    	jne    401c10 <notify_server+0xeb>
  401b32:	55                   	push   %rbp
  401b33:	53                   	push   %rbx
  401b34:	48 81 ec 08 40 00 00 	sub    $0x4008,%rsp
  401b3b:	89 fb                	mov    %edi,%ebx
  401b3d:	8b 05 e1 45 20 00    	mov    0x2045e1(%rip),%eax        # 606124 <gets_cnt>
  401b43:	83 c0 64             	add    $0x64,%eax
  401b46:	3d 00 20 00 00       	cmp    $0x2000,%eax
  401b4b:	0f 8f c1 00 00 00    	jg     401c12 <notify_server+0xed>
  401b51:	44 0f be 0d cf 45 20 	movsbl 0x2045cf(%rip),%r9d        # 606128 <target_prefix>
  401b58:	00 
  401b59:	83 3d 28 39 20 00 00 	cmpl   $0x0,0x203928(%rip)        # 605488 <notify>
  401b60:	0f 84 c7 00 00 00    	je     401c2d <notify_server+0x108>
  401b66:	44 8b 05 93 39 20 00 	mov    0x203993(%rip),%r8d        # 605500 <authkey>
  401b6d:	85 db                	test   %ebx,%ebx
  401b6f:	0f 84 c3 00 00 00    	je     401c38 <notify_server+0x113>
  401b75:	48 8d 2d ed 15 00 00 	lea    0x15ed(%rip),%rbp        # 403169 <_IO_stdin_used+0x3c9>
  401b7c:	48 8d bc 24 00 20 00 	lea    0x2000(%rsp),%rdi
  401b83:	00 
  401b84:	48 8d 05 95 39 20 00 	lea    0x203995(%rip),%rax        # 605520 <gets_buf>
  401b8b:	50                   	push   %rax
  401b8c:	56                   	push   %rsi
  401b8d:	48 89 e9             	mov    %rbp,%rcx
  401b90:	8b 15 9a 35 20 00    	mov    0x20359a(%rip),%edx        # 605130 <target_id>
  401b96:	48 8d 35 d6 15 00 00 	lea    0x15d6(%rip),%rsi        # 403173 <_IO_stdin_used+0x3d3>
  401b9d:	b8 00 00 00 00       	mov    $0x0,%eax
  401ba2:	e8 f9 f1 ff ff       	callq  400da0 <sprintf@plt>
  401ba7:	48 83 c4 10          	add    $0x10,%rsp
  401bab:	83 3d d6 38 20 00 00 	cmpl   $0x0,0x2038d6(%rip)        # 605488 <notify>
  401bb2:	0f 84 b8 00 00 00    	je     401c70 <notify_server+0x14b>
  401bb8:	85 db                	test   %ebx,%ebx
  401bba:	0f 84 a2 00 00 00    	je     401c62 <notify_server+0x13d>
  401bc0:	48 8d 8c 24 00 20 00 	lea    0x2000(%rsp),%rcx
  401bc7:	00 
  401bc8:	49 89 e1             	mov    %rsp,%r9
  401bcb:	41 b8 00 00 00 00    	mov    $0x0,%r8d
  401bd1:	48 8b 15 70 35 20 00 	mov    0x203570(%rip),%rdx        # 605148 <lab>
  401bd8:	48 8b 35 71 35 20 00 	mov    0x203571(%rip),%rsi        # 605150 <course>
  401bdf:	48 8b 3d 5a 35 20 00 	mov    0x20355a(%rip),%rdi        # 605140 <user_id>
  401be6:	e8 6e 10 00 00       	callq  402c59 <driver_post>
  401beb:	85 c0                	test   %eax,%eax
  401bed:	78 55                	js     401c44 <notify_server+0x11f>
  401bef:	48 8d 3d c2 16 00 00 	lea    0x16c2(%rip),%rdi        # 4032b8 <_IO_stdin_used+0x518>
  401bf6:	e8 35 f0 ff ff       	callq  400c30 <puts@plt>
  401bfb:	48 8d 3d 99 15 00 00 	lea    0x1599(%rip),%rdi        # 40319b <_IO_stdin_used+0x3fb>
  401c02:	e8 29 f0 ff ff       	callq  400c30 <puts@plt>
  401c07:	48 81 c4 08 40 00 00 	add    $0x4008,%rsp
  401c0e:	5b                   	pop    %rbx
  401c0f:	5d                   	pop    %rbp
  401c10:	f3 c3                	repz retq 
  401c12:	48 8d 3d 6f 16 00 00 	lea    0x166f(%rip),%rdi        # 403288 <_IO_stdin_used+0x4e8>
  401c19:	b8 00 00 00 00       	mov    $0x0,%eax
  401c1e:	e8 3d f0 ff ff       	callq  400c60 <printf@plt>
  401c23:	bf 01 00 00 00       	mov    $0x1,%edi
  401c28:	e8 83 f1 ff ff       	callq  400db0 <exit@plt>
  401c2d:	41 b8 ff ff ff ff    	mov    $0xffffffff,%r8d
  401c33:	e9 35 ff ff ff       	jmpq   401b6d <notify_server+0x48>
  401c38:	48 8d 2d 2f 15 00 00 	lea    0x152f(%rip),%rbp        # 40316e <_IO_stdin_used+0x3ce>
  401c3f:	e9 38 ff ff ff       	jmpq   401b7c <notify_server+0x57>
  401c44:	48 89 e6             	mov    %rsp,%rsi
  401c47:	48 8d 3d 41 15 00 00 	lea    0x1541(%rip),%rdi        # 40318f <_IO_stdin_used+0x3ef>
  401c4e:	b8 00 00 00 00       	mov    $0x0,%eax
  401c53:	e8 08 f0 ff ff       	callq  400c60 <printf@plt>
  401c58:	bf 01 00 00 00       	mov    $0x1,%edi
  401c5d:	e8 4e f1 ff ff       	callq  400db0 <exit@plt>
  401c62:	48 8d 3d 3c 15 00 00 	lea    0x153c(%rip),%rdi        # 4031a5 <_IO_stdin_used+0x405>
  401c69:	e8 c2 ef ff ff       	callq  400c30 <puts@plt>
  401c6e:	eb 97                	jmp    401c07 <notify_server+0xe2>
  401c70:	48 89 ee             	mov    %rbp,%rsi
  401c73:	48 8d 3d 76 16 00 00 	lea    0x1676(%rip),%rdi        # 4032f0 <_IO_stdin_used+0x550>
  401c7a:	b8 00 00 00 00       	mov    $0x0,%eax
  401c7f:	e8 dc ef ff ff       	callq  400c60 <printf@plt>
  401c84:	48 8b 35 b5 34 20 00 	mov    0x2034b5(%rip),%rsi        # 605140 <user_id>
  401c8b:	48 8d 3d 1a 15 00 00 	lea    0x151a(%rip),%rdi        # 4031ac <_IO_stdin_used+0x40c>
  401c92:	b8 00 00 00 00       	mov    $0x0,%eax
  401c97:	e8 c4 ef ff ff       	callq  400c60 <printf@plt>
  401c9c:	48 8b 35 ad 34 20 00 	mov    0x2034ad(%rip),%rsi        # 605150 <course>
  401ca3:	48 8d 3d 0f 15 00 00 	lea    0x150f(%rip),%rdi        # 4031b9 <_IO_stdin_used+0x419>
  401caa:	b8 00 00 00 00       	mov    $0x0,%eax
  401caf:	e8 ac ef ff ff       	callq  400c60 <printf@plt>
  401cb4:	48 8b 35 8d 34 20 00 	mov    0x20348d(%rip),%rsi        # 605148 <lab>
  401cbb:	48 8d 3d 03 15 00 00 	lea    0x1503(%rip),%rdi        # 4031c5 <_IO_stdin_used+0x425>
  401cc2:	b8 00 00 00 00       	mov    $0x0,%eax
  401cc7:	e8 94 ef ff ff       	callq  400c60 <printf@plt>
  401ccc:	48 8d b4 24 00 20 00 	lea    0x2000(%rsp),%rsi
  401cd3:	00 
  401cd4:	48 8d 3d f3 14 00 00 	lea    0x14f3(%rip),%rdi        # 4031ce <_IO_stdin_used+0x42e>
  401cdb:	b8 00 00 00 00       	mov    $0x0,%eax
  401ce0:	e8 7b ef ff ff       	callq  400c60 <printf@plt>
  401ce5:	e9 1d ff ff ff       	jmpq   401c07 <notify_server+0xe2>

0000000000401cea <validate>:
  401cea:	53                   	push   %rbx
  401ceb:	89 fb                	mov    %edi,%ebx
  401ced:	83 3d 14 38 20 00 00 	cmpl   $0x0,0x203814(%rip)        # 605508 <is_checker>
  401cf4:	74 68                	je     401d5e <validate+0x74>
  401cf6:	39 3d 00 38 20 00    	cmp    %edi,0x203800(%rip)        # 6054fc <vlevel>
  401cfc:	75 2d                	jne    401d2b <validate+0x41>
  401cfe:	8b 35 f4 37 20 00    	mov    0x2037f4(%rip),%esi        # 6054f8 <check_level>
  401d04:	39 f7                	cmp    %esi,%edi
  401d06:	75 39                	jne    401d41 <validate+0x57>
  401d08:	0f be 35 19 44 20 00 	movsbl 0x204419(%rip),%esi        # 606128 <target_prefix>
  401d0f:	48 8d 0d 0a 38 20 00 	lea    0x20380a(%rip),%rcx        # 605520 <gets_buf>
  401d16:	89 fa                	mov    %edi,%edx
  401d18:	48 8d 3d d9 14 00 00 	lea    0x14d9(%rip),%rdi        # 4031f8 <_IO_stdin_used+0x458>
  401d1f:	b8 00 00 00 00       	mov    $0x0,%eax
  401d24:	e8 37 ef ff ff       	callq  400c60 <printf@plt>
  401d29:	5b                   	pop    %rbx
  401d2a:	c3                   	retq   
  401d2b:	48 8d 3d a8 14 00 00 	lea    0x14a8(%rip),%rdi        # 4031da <_IO_stdin_used+0x43a>
  401d32:	e8 f9 ee ff ff       	callq  400c30 <puts@plt>
  401d37:	b8 00 00 00 00       	mov    $0x0,%eax
  401d3c:	e8 5f fd ff ff       	callq  401aa0 <check_fail>
  401d41:	89 fa                	mov    %edi,%edx
  401d43:	48 8d 3d ce 15 00 00 	lea    0x15ce(%rip),%rdi        # 403318 <_IO_stdin_used+0x578>
  401d4a:	b8 00 00 00 00       	mov    $0x0,%eax
  401d4f:	e8 0c ef ff ff       	callq  400c60 <printf@plt>
  401d54:	b8 00 00 00 00       	mov    $0x0,%eax
  401d59:	e8 42 fd ff ff       	callq  401aa0 <check_fail>
  401d5e:	3b 3d 98 37 20 00    	cmp    0x203798(%rip),%edi        # 6054fc <vlevel>
  401d64:	74 1a                	je     401d80 <validate+0x96>
  401d66:	48 8d 3d 6d 14 00 00 	lea    0x146d(%rip),%rdi        # 4031da <_IO_stdin_used+0x43a>
  401d6d:	e8 be ee ff ff       	callq  400c30 <puts@plt>
  401d72:	89 de                	mov    %ebx,%esi
  401d74:	bf 00 00 00 00       	mov    $0x0,%edi
  401d79:	e8 a7 fd ff ff       	callq  401b25 <notify_server>
  401d7e:	eb a9                	jmp    401d29 <validate+0x3f>
  401d80:	0f be 15 a1 43 20 00 	movsbl 0x2043a1(%rip),%edx        # 606128 <target_prefix>
  401d87:	89 fe                	mov    %edi,%esi
  401d89:	48 8d 3d b0 15 00 00 	lea    0x15b0(%rip),%rdi        # 403340 <_IO_stdin_used+0x5a0>
  401d90:	b8 00 00 00 00       	mov    $0x0,%eax
  401d95:	e8 c6 ee ff ff       	callq  400c60 <printf@plt>
  401d9a:	89 de                	mov    %ebx,%esi
  401d9c:	bf 01 00 00 00       	mov    $0x1,%edi
  401da1:	e8 7f fd ff ff       	callq  401b25 <notify_server>
  401da6:	eb 81                	jmp    401d29 <validate+0x3f>

0000000000401da8 <fail>:
  401da8:	48 83 ec 08          	sub    $0x8,%rsp
  401dac:	83 3d 55 37 20 00 00 	cmpl   $0x0,0x203755(%rip)        # 605508 <is_checker>
  401db3:	75 11                	jne    401dc6 <fail+0x1e>
  401db5:	89 fe                	mov    %edi,%esi
  401db7:	bf 00 00 00 00       	mov    $0x0,%edi
  401dbc:	e8 64 fd ff ff       	callq  401b25 <notify_server>
  401dc1:	48 83 c4 08          	add    $0x8,%rsp
  401dc5:	c3                   	retq   
  401dc6:	b8 00 00 00 00       	mov    $0x0,%eax
  401dcb:	e8 d0 fc ff ff       	callq  401aa0 <check_fail>

0000000000401dd0 <bushandler>:
  401dd0:	48 83 ec 08          	sub    $0x8,%rsp
  401dd4:	83 3d 2d 37 20 00 00 	cmpl   $0x0,0x20372d(%rip)        # 605508 <is_checker>
  401ddb:	74 16                	je     401df3 <bushandler+0x23>
  401ddd:	48 8d 3d 29 14 00 00 	lea    0x1429(%rip),%rdi        # 40320d <_IO_stdin_used+0x46d>
  401de4:	e8 47 ee ff ff       	callq  400c30 <puts@plt>
  401de9:	b8 00 00 00 00       	mov    $0x0,%eax
  401dee:	e8 ad fc ff ff       	callq  401aa0 <check_fail>
  401df3:	48 8d 3d 7e 15 00 00 	lea    0x157e(%rip),%rdi        # 403378 <_IO_stdin_used+0x5d8>
  401dfa:	e8 31 ee ff ff       	callq  400c30 <puts@plt>
  401dff:	48 8d 3d 11 14 00 00 	lea    0x1411(%rip),%rdi        # 403217 <_IO_stdin_used+0x477>
  401e06:	e8 25 ee ff ff       	callq  400c30 <puts@plt>
  401e0b:	be 00 00 00 00       	mov    $0x0,%esi
  401e10:	bf 00 00 00 00       	mov    $0x0,%edi
  401e15:	e8 0b fd ff ff       	callq  401b25 <notify_server>
  401e1a:	bf 01 00 00 00       	mov    $0x1,%edi
  401e1f:	e8 8c ef ff ff       	callq  400db0 <exit@plt>

0000000000401e24 <seghandler>:
  401e24:	48 83 ec 08          	sub    $0x8,%rsp
  401e28:	83 3d d9 36 20 00 00 	cmpl   $0x0,0x2036d9(%rip)        # 605508 <is_checker>
  401e2f:	74 16                	je     401e47 <seghandler+0x23>
  401e31:	48 8d 3d f5 13 00 00 	lea    0x13f5(%rip),%rdi        # 40322d <_IO_stdin_used+0x48d>
  401e38:	e8 f3 ed ff ff       	callq  400c30 <puts@plt>
  401e3d:	b8 00 00 00 00       	mov    $0x0,%eax
  401e42:	e8 59 fc ff ff       	callq  401aa0 <check_fail>
  401e47:	48 8d 3d 4a 15 00 00 	lea    0x154a(%rip),%rdi        # 403398 <_IO_stdin_used+0x5f8>
  401e4e:	e8 dd ed ff ff       	callq  400c30 <puts@plt>
  401e53:	48 8d 3d bd 13 00 00 	lea    0x13bd(%rip),%rdi        # 403217 <_IO_stdin_used+0x477>
  401e5a:	e8 d1 ed ff ff       	callq  400c30 <puts@plt>
  401e5f:	be 00 00 00 00       	mov    $0x0,%esi
  401e64:	bf 00 00 00 00       	mov    $0x0,%edi
  401e69:	e8 b7 fc ff ff       	callq  401b25 <notify_server>
  401e6e:	bf 01 00 00 00       	mov    $0x1,%edi
  401e73:	e8 38 ef ff ff       	callq  400db0 <exit@plt>

0000000000401e78 <illegalhandler>:
  401e78:	48 83 ec 08          	sub    $0x8,%rsp
  401e7c:	83 3d 85 36 20 00 00 	cmpl   $0x0,0x203685(%rip)        # 605508 <is_checker>
  401e83:	74 16                	je     401e9b <illegalhandler+0x23>
  401e85:	48 8d 3d b4 13 00 00 	lea    0x13b4(%rip),%rdi        # 403240 <_IO_stdin_used+0x4a0>
  401e8c:	e8 9f ed ff ff       	callq  400c30 <puts@plt>
  401e91:	b8 00 00 00 00       	mov    $0x0,%eax
  401e96:	e8 05 fc ff ff       	callq  401aa0 <check_fail>
  401e9b:	48 8d 3d 1e 15 00 00 	lea    0x151e(%rip),%rdi        # 4033c0 <_IO_stdin_used+0x620>
  401ea2:	e8 89 ed ff ff       	callq  400c30 <puts@plt>
  401ea7:	48 8d 3d 69 13 00 00 	lea    0x1369(%rip),%rdi        # 403217 <_IO_stdin_used+0x477>
  401eae:	e8 7d ed ff ff       	callq  400c30 <puts@plt>
  401eb3:	be 00 00 00 00       	mov    $0x0,%esi
  401eb8:	bf 00 00 00 00       	mov    $0x0,%edi
  401ebd:	e8 63 fc ff ff       	callq  401b25 <notify_server>
  401ec2:	bf 01 00 00 00       	mov    $0x1,%edi
  401ec7:	e8 e4 ee ff ff       	callq  400db0 <exit@plt>

0000000000401ecc <sigalrmhandler>:
  401ecc:	48 83 ec 08          	sub    $0x8,%rsp
  401ed0:	83 3d 31 36 20 00 00 	cmpl   $0x0,0x203631(%rip)        # 605508 <is_checker>
  401ed7:	74 16                	je     401eef <sigalrmhandler+0x23>
  401ed9:	48 8d 3d 74 13 00 00 	lea    0x1374(%rip),%rdi        # 403254 <_IO_stdin_used+0x4b4>
  401ee0:	e8 4b ed ff ff       	callq  400c30 <puts@plt>
  401ee5:	b8 00 00 00 00       	mov    $0x0,%eax
  401eea:	e8 b1 fb ff ff       	callq  401aa0 <check_fail>
  401eef:	be 05 00 00 00       	mov    $0x5,%esi
  401ef4:	48 8d 3d f5 14 00 00 	lea    0x14f5(%rip),%rdi        # 4033f0 <_IO_stdin_used+0x650>
  401efb:	b8 00 00 00 00       	mov    $0x0,%eax
  401f00:	e8 5b ed ff ff       	callq  400c60 <printf@plt>
  401f05:	be 00 00 00 00       	mov    $0x0,%esi
  401f0a:	bf 00 00 00 00       	mov    $0x0,%edi
  401f0f:	e8 11 fc ff ff       	callq  401b25 <notify_server>
  401f14:	bf 01 00 00 00       	mov    $0x1,%edi
  401f19:	e8 92 ee ff ff       	callq  400db0 <exit@plt>

0000000000401f1e <launch>:
  401f1e:	55                   	push   %rbp
  401f1f:	48 89 e5             	mov    %rsp,%rbp
  401f22:	48 89 fa             	mov    %rdi,%rdx
  401f25:	48 8d 47 1e          	lea    0x1e(%rdi),%rax
  401f29:	48 83 e0 f0          	and    $0xfffffffffffffff0,%rax
  401f2d:	48 29 c4             	sub    %rax,%rsp
  401f30:	48 8d 7c 24 0f       	lea    0xf(%rsp),%rdi
  401f35:	48 83 e7 f0          	and    $0xfffffffffffffff0,%rdi
  401f39:	be f4 00 00 00       	mov    $0xf4,%esi
  401f3e:	e8 2d ed ff ff       	callq  400c70 <memset@plt>
  401f43:	48 8b 05 56 35 20 00 	mov    0x203556(%rip),%rax        # 6054a0 <stdin@@GLIBC_2.2.5>
  401f4a:	48 39 05 9f 35 20 00 	cmp    %rax,0x20359f(%rip)        # 6054f0 <infile>
  401f51:	74 2b                	je     401f7e <launch+0x60>
  401f53:	c7 05 9f 35 20 00 00 	movl   $0x0,0x20359f(%rip)        # 6054fc <vlevel>
  401f5a:	00 00 00 
  401f5d:	b8 00 00 00 00       	mov    $0x0,%eax
  401f62:	e8 83 f9 ff ff       	callq  4018ea <test>
  401f67:	83 3d 9a 35 20 00 00 	cmpl   $0x0,0x20359a(%rip)        # 605508 <is_checker>
  401f6e:	75 21                	jne    401f91 <launch+0x73>
  401f70:	48 8d 3d fd 12 00 00 	lea    0x12fd(%rip),%rdi        # 403274 <_IO_stdin_used+0x4d4>
  401f77:	e8 b4 ec ff ff       	callq  400c30 <puts@plt>
  401f7c:	c9                   	leaveq 
  401f7d:	c3                   	retq   
  401f7e:	48 8d 3d d7 12 00 00 	lea    0x12d7(%rip),%rdi        # 40325c <_IO_stdin_used+0x4bc>
  401f85:	b8 00 00 00 00       	mov    $0x0,%eax
  401f8a:	e8 d1 ec ff ff       	callq  400c60 <printf@plt>
  401f8f:	eb c2                	jmp    401f53 <launch+0x35>
  401f91:	48 8d 3d d1 12 00 00 	lea    0x12d1(%rip),%rdi        # 403269 <_IO_stdin_used+0x4c9>
  401f98:	e8 93 ec ff ff       	callq  400c30 <puts@plt>
  401f9d:	b8 00 00 00 00       	mov    $0x0,%eax
  401fa2:	e8 f9 fa ff ff       	callq  401aa0 <check_fail>

0000000000401fa7 <stable_launch>:
  401fa7:	53                   	push   %rbx
  401fa8:	48 89 3d 39 35 20 00 	mov    %rdi,0x203539(%rip)        # 6054e8 <global_offset>
  401faf:	41 b9 00 00 00 00    	mov    $0x0,%r9d
  401fb5:	41 b8 00 00 00 00    	mov    $0x0,%r8d
  401fbb:	b9 32 01 00 00       	mov    $0x132,%ecx
  401fc0:	ba 07 00 00 00       	mov    $0x7,%edx
  401fc5:	be 00 00 10 00       	mov    $0x100000,%esi
  401fca:	bf 00 60 58 55       	mov    $0x55586000,%edi
  401fcf:	e8 7c ec ff ff       	callq  400c50 <mmap@plt>
  401fd4:	48 89 c3             	mov    %rax,%rbx
  401fd7:	48 3d 00 60 58 55    	cmp    $0x55586000,%rax
  401fdd:	75 43                	jne    402022 <stable_launch+0x7b>
  401fdf:	48 8d 90 f8 ff 0f 00 	lea    0xffff8(%rax),%rdx
  401fe6:	48 89 15 43 41 20 00 	mov    %rdx,0x204143(%rip)        # 606130 <stack_top>
  401fed:	48 89 e0             	mov    %rsp,%rax
  401ff0:	48 89 d4             	mov    %rdx,%rsp
  401ff3:	48 89 c2             	mov    %rax,%rdx
  401ff6:	48 89 15 e3 34 20 00 	mov    %rdx,0x2034e3(%rip)        # 6054e0 <global_save_stack>
  401ffd:	48 8b 3d e4 34 20 00 	mov    0x2034e4(%rip),%rdi        # 6054e8 <global_offset>
  402004:	e8 15 ff ff ff       	callq  401f1e <launch>
  402009:	48 8b 05 d0 34 20 00 	mov    0x2034d0(%rip),%rax        # 6054e0 <global_save_stack>
  402010:	48 89 c4             	mov    %rax,%rsp
  402013:	be 00 00 10 00       	mov    $0x100000,%esi
  402018:	48 89 df             	mov    %rbx,%rdi
  40201b:	e8 20 ed ff ff       	callq  400d40 <munmap@plt>
  402020:	5b                   	pop    %rbx
  402021:	c3                   	retq   
  402022:	be 00 00 10 00       	mov    $0x100000,%esi
  402027:	48 89 c7             	mov    %rax,%rdi
  40202a:	e8 11 ed ff ff       	callq  400d40 <munmap@plt>
  40202f:	ba 00 60 58 55       	mov    $0x55586000,%edx
  402034:	48 8d 35 ed 13 00 00 	lea    0x13ed(%rip),%rsi        # 403428 <_IO_stdin_used+0x688>
  40203b:	48 8b 3d 7e 34 20 00 	mov    0x20347e(%rip),%rdi        # 6054c0 <stderr@@GLIBC_2.2.5>
  402042:	b8 00 00 00 00       	mov    $0x0,%eax
  402047:	e8 84 ec ff ff       	callq  400cd0 <fprintf@plt>
  40204c:	bf 01 00 00 00       	mov    $0x1,%edi
  402051:	e8 5a ed ff ff       	callq  400db0 <exit@plt>

0000000000402056 <rio_readinitb>:
  402056:	89 37                	mov    %esi,(%rdi)
  402058:	c7 47 04 00 00 00 00 	movl   $0x0,0x4(%rdi)
  40205f:	48 8d 47 10          	lea    0x10(%rdi),%rax
  402063:	48 89 47 08          	mov    %rax,0x8(%rdi)
  402067:	c3                   	retq   

0000000000402068 <sigalrm_handler>:
  402068:	48 83 ec 08          	sub    $0x8,%rsp
  40206c:	ba 00 00 00 00       	mov    $0x0,%edx
  402071:	48 8d 35 e8 13 00 00 	lea    0x13e8(%rip),%rsi        # 403460 <trans_char+0x10>
  402078:	48 8b 3d 41 34 20 00 	mov    0x203441(%rip),%rdi        # 6054c0 <stderr@@GLIBC_2.2.5>
  40207f:	b8 00 00 00 00       	mov    $0x0,%eax
  402084:	e8 47 ec ff ff       	callq  400cd0 <fprintf@plt>
  402089:	bf 01 00 00 00       	mov    $0x1,%edi
  40208e:	e8 1d ed ff ff       	callq  400db0 <exit@plt>

0000000000402093 <urlencode>:
  402093:	41 54                	push   %r12
  402095:	55                   	push   %rbp
  402096:	53                   	push   %rbx
  402097:	48 83 ec 10          	sub    $0x10,%rsp
  40209b:	48 89 fb             	mov    %rdi,%rbx
  40209e:	48 89 f5             	mov    %rsi,%rbp
  4020a1:	b8 00 00 00 00       	mov    $0x0,%eax
  4020a6:	48 c7 c1 ff ff ff ff 	mov    $0xffffffffffffffff,%rcx
  4020ad:	f2 ae                	repnz scas %es:(%rdi),%al
  4020af:	48 f7 d1             	not    %rcx
  4020b2:	8d 41 ff             	lea    -0x1(%rcx),%eax
  4020b5:	eb 0e                	jmp    4020c5 <urlencode+0x32>
  4020b7:	88 55 00             	mov    %dl,0x0(%rbp)
  4020ba:	48 8d 6d 01          	lea    0x1(%rbp),%rbp
  4020be:	48 83 c3 01          	add    $0x1,%rbx
  4020c2:	44 89 e0             	mov    %r12d,%eax
  4020c5:	44 8d 60 ff          	lea    -0x1(%rax),%r12d
  4020c9:	85 c0                	test   %eax,%eax
  4020cb:	0f 84 95 00 00 00    	je     402166 <urlencode+0xd3>
  4020d1:	0f b6 13             	movzbl (%rbx),%edx
  4020d4:	80 fa 2a             	cmp    $0x2a,%dl
  4020d7:	0f 94 c1             	sete   %cl
  4020da:	80 fa 2d             	cmp    $0x2d,%dl
  4020dd:	0f 94 c0             	sete   %al
  4020e0:	08 c1                	or     %al,%cl
  4020e2:	75 d3                	jne    4020b7 <urlencode+0x24>
  4020e4:	80 fa 2e             	cmp    $0x2e,%dl
  4020e7:	74 ce                	je     4020b7 <urlencode+0x24>
  4020e9:	80 fa 5f             	cmp    $0x5f,%dl
  4020ec:	74 c9                	je     4020b7 <urlencode+0x24>
  4020ee:	8d 42 d0             	lea    -0x30(%rdx),%eax
  4020f1:	3c 09                	cmp    $0x9,%al
  4020f3:	76 c2                	jbe    4020b7 <urlencode+0x24>
  4020f5:	8d 42 bf             	lea    -0x41(%rdx),%eax
  4020f8:	3c 19                	cmp    $0x19,%al
  4020fa:	76 bb                	jbe    4020b7 <urlencode+0x24>
  4020fc:	8d 42 9f             	lea    -0x61(%rdx),%eax
  4020ff:	3c 19                	cmp    $0x19,%al
  402101:	76 b4                	jbe    4020b7 <urlencode+0x24>
  402103:	80 fa 20             	cmp    $0x20,%dl
  402106:	74 4c                	je     402154 <urlencode+0xc1>
  402108:	8d 42 e0             	lea    -0x20(%rdx),%eax
  40210b:	3c 5f                	cmp    $0x5f,%al
  40210d:	0f 96 c1             	setbe  %cl
  402110:	80 fa 09             	cmp    $0x9,%dl
  402113:	0f 94 c0             	sete   %al
  402116:	08 c1                	or     %al,%cl
  402118:	74 47                	je     402161 <urlencode+0xce>
  40211a:	0f b6 d2             	movzbl %dl,%edx
  40211d:	48 8d 7c 24 08       	lea    0x8(%rsp),%rdi
  402122:	48 8d 35 cf 13 00 00 	lea    0x13cf(%rip),%rsi        # 4034f8 <trans_char+0xa8>
  402129:	b8 00 00 00 00       	mov    $0x0,%eax
  40212e:	e8 6d ec ff ff       	callq  400da0 <sprintf@plt>
  402133:	0f b6 44 24 08       	movzbl 0x8(%rsp),%eax
  402138:	88 45 00             	mov    %al,0x0(%rbp)
  40213b:	0f b6 44 24 09       	movzbl 0x9(%rsp),%eax
  402140:	88 45 01             	mov    %al,0x1(%rbp)
  402143:	0f b6 44 24 0a       	movzbl 0xa(%rsp),%eax
  402148:	88 45 02             	mov    %al,0x2(%rbp)
  40214b:	48 8d 6d 03          	lea    0x3(%rbp),%rbp
  40214f:	e9 6a ff ff ff       	jmpq   4020be <urlencode+0x2b>
  402154:	c6 45 00 2b          	movb   $0x2b,0x0(%rbp)
  402158:	48 8d 6d 01          	lea    0x1(%rbp),%rbp
  40215c:	e9 5d ff ff ff       	jmpq   4020be <urlencode+0x2b>
  402161:	b8 ff ff ff ff       	mov    $0xffffffff,%eax
  402166:	48 83 c4 10          	add    $0x10,%rsp
  40216a:	5b                   	pop    %rbx
  40216b:	5d                   	pop    %rbp
  40216c:	41 5c                	pop    %r12
  40216e:	c3                   	retq   

000000000040216f <rio_writen>:
  40216f:	41 55                	push   %r13
  402171:	41 54                	push   %r12
  402173:	55                   	push   %rbp
  402174:	53                   	push   %rbx
  402175:	48 83 ec 08          	sub    $0x8,%rsp
  402179:	41 89 fc             	mov    %edi,%r12d
  40217c:	49 89 d5             	mov    %rdx,%r13
  40217f:	48 89 f5             	mov    %rsi,%rbp
  402182:	48 89 d3             	mov    %rdx,%rbx
  402185:	eb 06                	jmp    40218d <rio_writen+0x1e>
  402187:	48 29 c3             	sub    %rax,%rbx
  40218a:	48 01 c5             	add    %rax,%rbp
  40218d:	48 85 db             	test   %rbx,%rbx
  402190:	74 24                	je     4021b6 <rio_writen+0x47>
  402192:	48 89 da             	mov    %rbx,%rdx
  402195:	48 89 ee             	mov    %rbp,%rsi
  402198:	44 89 e7             	mov    %r12d,%edi
  40219b:	e8 a0 ea ff ff       	callq  400c40 <write@plt>
  4021a0:	48 85 c0             	test   %rax,%rax
  4021a3:	7f e2                	jg     402187 <rio_writen+0x18>
  4021a5:	e8 46 ea ff ff       	callq  400bf0 <__errno_location@plt>
  4021aa:	83 38 04             	cmpl   $0x4,(%rax)
  4021ad:	75 15                	jne    4021c4 <rio_writen+0x55>
  4021af:	b8 00 00 00 00       	mov    $0x0,%eax
  4021b4:	eb d1                	jmp    402187 <rio_writen+0x18>
  4021b6:	4c 89 e8             	mov    %r13,%rax
  4021b9:	48 83 c4 08          	add    $0x8,%rsp
  4021bd:	5b                   	pop    %rbx
  4021be:	5d                   	pop    %rbp
  4021bf:	41 5c                	pop    %r12
  4021c1:	41 5d                	pop    %r13
  4021c3:	c3                   	retq   
  4021c4:	48 c7 c0 ff ff ff ff 	mov    $0xffffffffffffffff,%rax
  4021cb:	eb ec                	jmp    4021b9 <rio_writen+0x4a>

00000000004021cd <rio_read>:
  4021cd:	41 55                	push   %r13
  4021cf:	41 54                	push   %r12
  4021d1:	55                   	push   %rbp
  4021d2:	53                   	push   %rbx
  4021d3:	48 83 ec 08          	sub    $0x8,%rsp
  4021d7:	48 89 fb             	mov    %rdi,%rbx
  4021da:	49 89 f5             	mov    %rsi,%r13
  4021dd:	49 89 d4             	mov    %rdx,%r12
  4021e0:	eb 0a                	jmp    4021ec <rio_read+0x1f>
  4021e2:	e8 09 ea ff ff       	callq  400bf0 <__errno_location@plt>
  4021e7:	83 38 04             	cmpl   $0x4,(%rax)
  4021ea:	75 5c                	jne    402248 <rio_read+0x7b>
  4021ec:	8b 6b 04             	mov    0x4(%rbx),%ebp
  4021ef:	85 ed                	test   %ebp,%ebp
  4021f1:	7f 24                	jg     402217 <rio_read+0x4a>
  4021f3:	48 8d 6b 10          	lea    0x10(%rbx),%rbp
  4021f7:	ba 00 20 00 00       	mov    $0x2000,%edx
  4021fc:	48 89 ee             	mov    %rbp,%rsi
  4021ff:	8b 3b                	mov    (%rbx),%edi
  402201:	e8 9a ea ff ff       	callq  400ca0 <read@plt>
  402206:	89 43 04             	mov    %eax,0x4(%rbx)
  402209:	85 c0                	test   %eax,%eax
  40220b:	78 d5                	js     4021e2 <rio_read+0x15>
  40220d:	85 c0                	test   %eax,%eax
  40220f:	74 40                	je     402251 <rio_read+0x84>
  402211:	48 89 6b 08          	mov    %rbp,0x8(%rbx)
  402215:	eb d5                	jmp    4021ec <rio_read+0x1f>
  402217:	89 e8                	mov    %ebp,%eax
  402219:	49 39 c4             	cmp    %rax,%r12
  40221c:	77 03                	ja     402221 <rio_read+0x54>
  40221e:	44 89 e5             	mov    %r12d,%ebp
  402221:	4c 63 e5             	movslq %ebp,%r12
  402224:	48 8b 73 08          	mov    0x8(%rbx),%rsi
  402228:	4c 89 e2             	mov    %r12,%rdx
  40222b:	4c 89 ef             	mov    %r13,%rdi
  40222e:	e8 bd ea ff ff       	callq  400cf0 <memcpy@plt>
  402233:	4c 01 63 08          	add    %r12,0x8(%rbx)
  402237:	29 6b 04             	sub    %ebp,0x4(%rbx)
  40223a:	4c 89 e0             	mov    %r12,%rax
  40223d:	48 83 c4 08          	add    $0x8,%rsp
  402241:	5b                   	pop    %rbx
  402242:	5d                   	pop    %rbp
  402243:	41 5c                	pop    %r12
  402245:	41 5d                	pop    %r13
  402247:	c3                   	retq   
  402248:	48 c7 c0 ff ff ff ff 	mov    $0xffffffffffffffff,%rax
  40224f:	eb ec                	jmp    40223d <rio_read+0x70>
  402251:	b8 00 00 00 00       	mov    $0x0,%eax
  402256:	eb e5                	jmp    40223d <rio_read+0x70>

0000000000402258 <rio_readlineb>:
  402258:	41 55                	push   %r13
  40225a:	41 54                	push   %r12
  40225c:	55                   	push   %rbp
  40225d:	53                   	push   %rbx
  40225e:	48 83 ec 18          	sub    $0x18,%rsp
  402262:	49 89 fd             	mov    %rdi,%r13
  402265:	49 89 d4             	mov    %rdx,%r12
  402268:	48 89 f5             	mov    %rsi,%rbp
  40226b:	bb 01 00 00 00       	mov    $0x1,%ebx
  402270:	4c 39 e3             	cmp    %r12,%rbx
  402273:	73 47                	jae    4022bc <rio_readlineb+0x64>
  402275:	48 8d 74 24 0f       	lea    0xf(%rsp),%rsi
  40227a:	ba 01 00 00 00       	mov    $0x1,%edx
  40227f:	4c 89 ef             	mov    %r13,%rdi
  402282:	e8 46 ff ff ff       	callq  4021cd <rio_read>
  402287:	83 f8 01             	cmp    $0x1,%eax
  40228a:	75 1c                	jne    4022a8 <rio_readlineb+0x50>
  40228c:	48 8d 45 01          	lea    0x1(%rbp),%rax
  402290:	0f b6 54 24 0f       	movzbl 0xf(%rsp),%edx
  402295:	88 55 00             	mov    %dl,0x0(%rbp)
  402298:	80 7c 24 0f 0a       	cmpb   $0xa,0xf(%rsp)
  40229d:	74 1a                	je     4022b9 <rio_readlineb+0x61>
  40229f:	48 83 c3 01          	add    $0x1,%rbx
  4022a3:	48 89 c5             	mov    %rax,%rbp
  4022a6:	eb c8                	jmp    402270 <rio_readlineb+0x18>
  4022a8:	85 c0                	test   %eax,%eax
  4022aa:	75 22                	jne    4022ce <rio_readlineb+0x76>
  4022ac:	48 83 fb 01          	cmp    $0x1,%rbx
  4022b0:	75 0a                	jne    4022bc <rio_readlineb+0x64>
  4022b2:	b8 00 00 00 00       	mov    $0x0,%eax
  4022b7:	eb 0a                	jmp    4022c3 <rio_readlineb+0x6b>
  4022b9:	48 89 c5             	mov    %rax,%rbp
  4022bc:	c6 45 00 00          	movb   $0x0,0x0(%rbp)
  4022c0:	48 89 d8             	mov    %rbx,%rax
  4022c3:	48 83 c4 18          	add    $0x18,%rsp
  4022c7:	5b                   	pop    %rbx
  4022c8:	5d                   	pop    %rbp
  4022c9:	41 5c                	pop    %r12
  4022cb:	41 5d                	pop    %r13
  4022cd:	c3                   	retq   
  4022ce:	48 c7 c0 ff ff ff ff 	mov    $0xffffffffffffffff,%rax
  4022d5:	eb ec                	jmp    4022c3 <rio_readlineb+0x6b>

00000000004022d7 <submitr>:
  4022d7:	41 57                	push   %r15
  4022d9:	41 56                	push   %r14
  4022db:	41 55                	push   %r13
  4022dd:	41 54                	push   %r12
  4022df:	55                   	push   %rbp
  4022e0:	53                   	push   %rbx
  4022e1:	48 81 ec 58 a0 00 00 	sub    $0xa058,%rsp
  4022e8:	49 89 fd             	mov    %rdi,%r13
  4022eb:	89 74 24 14          	mov    %esi,0x14(%rsp)
  4022ef:	49 89 d7             	mov    %rdx,%r15
  4022f2:	48 89 4c 24 08       	mov    %rcx,0x8(%rsp)
  4022f7:	4c 89 44 24 18       	mov    %r8,0x18(%rsp)
  4022fc:	4d 89 ce             	mov    %r9,%r14
  4022ff:	48 8b 9c 24 90 a0 00 	mov    0xa090(%rsp),%rbx
  402306:	00 
  402307:	c7 84 24 2c 20 00 00 	movl   $0x0,0x202c(%rsp)
  40230e:	00 00 00 00 
  402312:	ba 00 00 00 00       	mov    $0x0,%edx
  402317:	be 01 00 00 00       	mov    $0x1,%esi
  40231c:	bf 02 00 00 00       	mov    $0x2,%edi
  402321:	e8 aa ea ff ff       	callq  400dd0 <socket@plt>
  402326:	85 c0                	test   %eax,%eax
  402328:	0f 88 ca 01 00 00    	js     4024f8 <submitr+0x221>
  40232e:	89 c5                	mov    %eax,%ebp
  402330:	4c 89 ef             	mov    %r13,%rdi
  402333:	e8 88 e9 ff ff       	callq  400cc0 <gethostbyname@plt>
  402338:	48 85 c0             	test   %rax,%rax
  40233b:	0f 84 05 02 00 00    	je     402546 <submitr+0x26f>
  402341:	4c 8d a4 24 40 a0 00 	lea    0xa040(%rsp),%r12
  402348:	00 
  402349:	48 c7 84 24 40 a0 00 	movq   $0x0,0xa040(%rsp)
  402350:	00 00 00 00 00 
  402355:	48 c7 84 24 48 a0 00 	movq   $0x0,0xa048(%rsp)
  40235c:	00 00 00 00 00 
  402361:	66 c7 84 24 40 a0 00 	movw   $0x2,0xa040(%rsp)
  402368:	00 02 00 
  40236b:	48 8b 48 18          	mov    0x18(%rax),%rcx
  40236f:	48 63 50 14          	movslq 0x14(%rax),%rdx
  402373:	48 8d b4 24 44 a0 00 	lea    0xa044(%rsp),%rsi
  40237a:	00 
  40237b:	48 8b 39             	mov    (%rcx),%rdi
  40237e:	e8 cd e9 ff ff       	callq  400d50 <bcopy@plt>
  402383:	0f b7 44 24 14       	movzwl 0x14(%rsp),%eax
  402388:	66 c1 c8 08          	ror    $0x8,%ax
  40238c:	66 89 84 24 42 a0 00 	mov    %ax,0xa042(%rsp)
  402393:	00 
  402394:	ba 10 00 00 00       	mov    $0x10,%edx
  402399:	4c 89 e6             	mov    %r12,%rsi
  40239c:	89 ef                	mov    %ebp,%edi
  40239e:	e8 1d ea ff ff       	callq  400dc0 <connect@plt>
  4023a3:	85 c0                	test   %eax,%eax
  4023a5:	0f 88 02 02 00 00    	js     4025ad <submitr+0x2d6>
  4023ab:	48 c7 c6 ff ff ff ff 	mov    $0xffffffffffffffff,%rsi
  4023b2:	b8 00 00 00 00       	mov    $0x0,%eax
  4023b7:	48 89 f1             	mov    %rsi,%rcx
  4023ba:	4c 89 f7             	mov    %r14,%rdi
  4023bd:	f2 ae                	repnz scas %es:(%rdi),%al
  4023bf:	48 f7 d1             	not    %rcx
  4023c2:	48 89 ca             	mov    %rcx,%rdx
  4023c5:	48 89 f1             	mov    %rsi,%rcx
  4023c8:	4c 89 ff             	mov    %r15,%rdi
  4023cb:	f2 ae                	repnz scas %es:(%rdi),%al
  4023cd:	48 f7 d1             	not    %rcx
  4023d0:	49 89 c8             	mov    %rcx,%r8
  4023d3:	48 89 f1             	mov    %rsi,%rcx
  4023d6:	48 8b 7c 24 08       	mov    0x8(%rsp),%rdi
  4023db:	f2 ae                	repnz scas %es:(%rdi),%al
  4023dd:	48 f7 d1             	not    %rcx
  4023e0:	4d 8d 44 08 fe       	lea    -0x2(%r8,%rcx,1),%r8
  4023e5:	48 89 f1             	mov    %rsi,%rcx
  4023e8:	48 8b 7c 24 18       	mov    0x18(%rsp),%rdi
  4023ed:	f2 ae                	repnz scas %es:(%rdi),%al
  4023ef:	48 89 c8             	mov    %rcx,%rax
  4023f2:	48 f7 d0             	not    %rax
  4023f5:	49 8d 4c 00 ff       	lea    -0x1(%r8,%rax,1),%rcx
  4023fa:	48 8d 44 52 fd       	lea    -0x3(%rdx,%rdx,2),%rax
  4023ff:	48 8d 84 01 80 00 00 	lea    0x80(%rcx,%rax,1),%rax
  402406:	00 
  402407:	48 3d 00 20 00 00    	cmp    $0x2000,%rax
  40240d:	0f 87 f3 01 00 00    	ja     402606 <submitr+0x32f>
  402413:	48 8d b4 24 30 40 00 	lea    0x4030(%rsp),%rsi
  40241a:	00 
  40241b:	b9 00 04 00 00       	mov    $0x400,%ecx
  402420:	b8 00 00 00 00       	mov    $0x0,%eax
  402425:	48 89 f7             	mov    %rsi,%rdi
  402428:	f3 48 ab             	rep stos %rax,%es:(%rdi)
  40242b:	4c 89 f7             	mov    %r14,%rdi
  40242e:	e8 60 fc ff ff       	callq  402093 <urlencode>
  402433:	85 c0                	test   %eax,%eax
  402435:	0f 88 3d 02 00 00    	js     402678 <submitr+0x3a1>
  40243b:	4c 8d a4 24 30 60 00 	lea    0x6030(%rsp),%r12
  402442:	00 
  402443:	4d 89 e9             	mov    %r13,%r9
  402446:	4c 8d 84 24 30 40 00 	lea    0x4030(%rsp),%r8
  40244d:	00 
  40244e:	4c 89 f9             	mov    %r15,%rcx
  402451:	48 8b 54 24 08       	mov    0x8(%rsp),%rdx
  402456:	48 8d 35 2b 10 00 00 	lea    0x102b(%rip),%rsi        # 403488 <trans_char+0x38>
  40245d:	4c 89 e7             	mov    %r12,%rdi
  402460:	b8 00 00 00 00       	mov    $0x0,%eax
  402465:	e8 36 e9 ff ff       	callq  400da0 <sprintf@plt>
  40246a:	b8 00 00 00 00       	mov    $0x0,%eax
  40246f:	48 c7 c1 ff ff ff ff 	mov    $0xffffffffffffffff,%rcx
  402476:	4c 89 e7             	mov    %r12,%rdi
  402479:	f2 ae                	repnz scas %es:(%rdi),%al
  40247b:	48 f7 d1             	not    %rcx
  40247e:	48 8d 51 ff          	lea    -0x1(%rcx),%rdx
  402482:	4c 89 e6             	mov    %r12,%rsi
  402485:	89 ef                	mov    %ebp,%edi
  402487:	e8 e3 fc ff ff       	callq  40216f <rio_writen>
  40248c:	48 85 c0             	test   %rax,%rax
  40248f:	0f 88 6d 02 00 00    	js     402702 <submitr+0x42b>
  402495:	4c 8d a4 24 30 80 00 	lea    0x8030(%rsp),%r12
  40249c:	00 
  40249d:	89 ee                	mov    %ebp,%esi
  40249f:	4c 89 e7             	mov    %r12,%rdi
  4024a2:	e8 af fb ff ff       	callq  402056 <rio_readinitb>
  4024a7:	48 8d b4 24 30 60 00 	lea    0x6030(%rsp),%rsi
  4024ae:	00 
  4024af:	ba 00 20 00 00       	mov    $0x2000,%edx
  4024b4:	4c 89 e7             	mov    %r12,%rdi
  4024b7:	e8 9c fd ff ff       	callq  402258 <rio_readlineb>
  4024bc:	48 85 c0             	test   %rax,%rax
  4024bf:	0f 8e ab 02 00 00    	jle    402770 <submitr+0x499>
  4024c5:	48 8d 8c 24 2c 20 00 	lea    0x202c(%rsp),%rcx
  4024cc:	00 
  4024cd:	48 8d 94 24 30 20 00 	lea    0x2030(%rsp),%rdx
  4024d4:	00 
  4024d5:	48 8d bc 24 30 60 00 	lea    0x6030(%rsp),%rdi
  4024dc:	00 
  4024dd:	4c 8d 44 24 20       	lea    0x20(%rsp),%r8
  4024e2:	48 8d 35 16 10 00 00 	lea    0x1016(%rip),%rsi        # 4034ff <trans_char+0xaf>
  4024e9:	b8 00 00 00 00       	mov    $0x0,%eax
  4024ee:	e8 3d e8 ff ff       	callq  400d30 <__isoc99_sscanf@plt>
  4024f3:	e9 9f 03 00 00       	jmpq   402897 <submitr+0x5c0>
  4024f8:	48 b8 45 72 72 6f 72 	movabs $0x43203a726f727245,%rax
  4024ff:	3a 20 43 
  402502:	48 89 03             	mov    %rax,(%rbx)
  402505:	48 b8 6c 69 65 6e 74 	movabs $0x6e7520746e65696c,%rax
  40250c:	20 75 6e 
  40250f:	48 89 43 08          	mov    %rax,0x8(%rbx)
  402513:	48 b8 61 62 6c 65 20 	movabs $0x206f7420656c6261,%rax
  40251a:	74 6f 20 
  40251d:	48 89 43 10          	mov    %rax,0x10(%rbx)
  402521:	48 b8 63 72 65 61 74 	movabs $0x7320657461657263,%rax
  402528:	65 20 73 
  40252b:	48 89 43 18          	mov    %rax,0x18(%rbx)
  40252f:	c7 43 20 6f 63 6b 65 	movl   $0x656b636f,0x20(%rbx)
  402536:	66 c7 43 24 74 00    	movw   $0x74,0x24(%rbx)
  40253c:	b8 ff ff ff ff       	mov    $0xffffffff,%eax
  402541:	e9 18 03 00 00       	jmpq   40285e <submitr+0x587>
  402546:	48 b8 45 72 72 6f 72 	movabs $0x44203a726f727245,%rax
  40254d:	3a 20 44 
  402550:	48 89 03             	mov    %rax,(%rbx)
  402553:	48 b8 4e 53 20 69 73 	movabs $0x6e7520736920534e,%rax
  40255a:	20 75 6e 
  40255d:	48 89 43 08          	mov    %rax,0x8(%rbx)
  402561:	48 b8 61 62 6c 65 20 	movabs $0x206f7420656c6261,%rax
  402568:	74 6f 20 
  40256b:	48 89 43 10          	mov    %rax,0x10(%rbx)
  40256f:	48 b8 72 65 73 6f 6c 	movabs $0x2065766c6f736572,%rax
  402576:	76 65 20 
  402579:	48 89 43 18          	mov    %rax,0x18(%rbx)
  40257d:	48 b8 73 65 72 76 65 	movabs $0x6120726576726573,%rax
  402584:	72 20 61 
  402587:	48 89 43 20          	mov    %rax,0x20(%rbx)
  40258b:	c7 43 28 64 64 72 65 	movl   $0x65726464,0x28(%rbx)
  402592:	66 c7 43 2c 73 73    	movw   $0x7373,0x2c(%rbx)
  402598:	c6 43 2e 00          	movb   $0x0,0x2e(%rbx)
  40259c:	89 ef                	mov    %ebp,%edi
  40259e:	e8 ed e6 ff ff       	callq  400c90 <close@plt>
  4025a3:	b8 ff ff ff ff       	mov    $0xffffffff,%eax
  4025a8:	e9 b1 02 00 00       	jmpq   40285e <submitr+0x587>
  4025ad:	48 b8 45 72 72 6f 72 	movabs $0x55203a726f727245,%rax
  4025b4:	3a 20 55 
  4025b7:	48 89 03             	mov    %rax,(%rbx)
  4025ba:	48 b8 6e 61 62 6c 65 	movabs $0x6f7420656c62616e,%rax
  4025c1:	20 74 6f 
  4025c4:	48 89 43 08          	mov    %rax,0x8(%rbx)
  4025c8:	48 b8 20 63 6f 6e 6e 	movabs $0x7463656e6e6f6320,%rax
  4025cf:	65 63 74 
  4025d2:	48 89 43 10          	mov    %rax,0x10(%rbx)
  4025d6:	48 b8 20 74 6f 20 74 	movabs $0x20656874206f7420,%rax
  4025dd:	68 65 20 
  4025e0:	48 89 43 18          	mov    %rax,0x18(%rbx)
  4025e4:	c7 43 20 73 65 72 76 	movl   $0x76726573,0x20(%rbx)
  4025eb:	66 c7 43 24 65 72    	movw   $0x7265,0x24(%rbx)
  4025f1:	c6 43 26 00          	movb   $0x0,0x26(%rbx)
  4025f5:	89 ef                	mov    %ebp,%edi
  4025f7:	e8 94 e6 ff ff       	callq  400c90 <close@plt>
  4025fc:	b8 ff ff ff ff       	mov    $0xffffffff,%eax
  402601:	e9 58 02 00 00       	jmpq   40285e <submitr+0x587>
  402606:	48 b8 45 72 72 6f 72 	movabs $0x52203a726f727245,%rax
  40260d:	3a 20 52 
  402610:	48 89 03             	mov    %rax,(%rbx)
  402613:	48 b8 65 73 75 6c 74 	movabs $0x747320746c757365,%rax
  40261a:	20 73 74 
  40261d:	48 89 43 08          	mov    %rax,0x8(%rbx)
  402621:	48 b8 72 69 6e 67 20 	movabs $0x6f6f7420676e6972,%rax
  402628:	74 6f 6f 
  40262b:	48 89 43 10          	mov    %rax,0x10(%rbx)
  40262f:	48 b8 20 6c 61 72 67 	movabs $0x202e656772616c20,%rax
  402636:	65 2e 20 
  402639:	48 89 43 18          	mov    %rax,0x18(%rbx)
  40263d:	48 b8 49 6e 63 72 65 	movabs $0x6573616572636e49,%rax
  402644:	61 73 65 
  402647:	48 89 43 20          	mov    %rax,0x20(%rbx)
  40264b:	48 b8 20 53 55 42 4d 	movabs $0x5254494d42555320,%rax
  402652:	49 54 52 
  402655:	48 89 43 28          	mov    %rax,0x28(%rbx)
  402659:	48 b8 5f 4d 41 58 42 	movabs $0x46554258414d5f,%rax
  402660:	55 46 00 
  402663:	48 89 43 30          	mov    %rax,0x30(%rbx)
  402667:	89 ef                	mov    %ebp,%edi
  402669:	e8 22 e6 ff ff       	callq  400c90 <close@plt>
  40266e:	b8 ff ff ff ff       	mov    $0xffffffff,%eax
  402673:	e9 e6 01 00 00       	jmpq   40285e <submitr+0x587>
  402678:	48 b8 45 72 72 6f 72 	movabs $0x52203a726f727245,%rax
  40267f:	3a 20 52 
  402682:	48 89 03             	mov    %rax,(%rbx)
  402685:	48 b8 65 73 75 6c 74 	movabs $0x747320746c757365,%rax
  40268c:	20 73 74 
  40268f:	48 89 43 08          	mov    %rax,0x8(%rbx)
  402693:	48 b8 72 69 6e 67 20 	movabs $0x6e6f6320676e6972,%rax
  40269a:	63 6f 6e 
  40269d:	48 89 43 10          	mov    %rax,0x10(%rbx)
  4026a1:	48 b8 74 61 69 6e 73 	movabs $0x6e6120736e696174,%rax
  4026a8:	20 61 6e 
  4026ab:	48 89 43 18          	mov    %rax,0x18(%rbx)
  4026af:	48 b8 20 69 6c 6c 65 	movabs $0x6c6167656c6c6920,%rax
  4026b6:	67 61 6c 
  4026b9:	48 89 43 20          	mov    %rax,0x20(%rbx)
  4026bd:	48 b8 20 6f 72 20 75 	movabs $0x72706e7520726f20,%rax
  4026c4:	6e 70 72 
  4026c7:	48 89 43 28          	mov    %rax,0x28(%rbx)
  4026cb:	48 b8 69 6e 74 61 62 	movabs $0x20656c6261746e69,%rax
  4026d2:	6c 65 20 
  4026d5:	48 89 43 30          	mov    %rax,0x30(%rbx)
  4026d9:	48 b8 63 68 61 72 61 	movabs $0x6574636172616863,%rax
  4026e0:	63 74 65 
  4026e3:	48 89 43 38          	mov    %rax,0x38(%rbx)
  4026e7:	66 c7 43 40 72 2e    	movw   $0x2e72,0x40(%rbx)
  4026ed:	c6 43 42 00          	movb   $0x0,0x42(%rbx)
  4026f1:	89 ef                	mov    %ebp,%edi
  4026f3:	e8 98 e5 ff ff       	callq  400c90 <close@plt>
  4026f8:	b8 ff ff ff ff       	mov    $0xffffffff,%eax
  4026fd:	e9 5c 01 00 00       	jmpq   40285e <submitr+0x587>
  402702:	48 b8 45 72 72 6f 72 	movabs $0x43203a726f727245,%rax
  402709:	3a 20 43 
  40270c:	48 89 03             	mov    %rax,(%rbx)
  40270f:	48 b8 6c 69 65 6e 74 	movabs $0x6e7520746e65696c,%rax
  402716:	20 75 6e 
  402719:	48 89 43 08          	mov    %rax,0x8(%rbx)
  40271d:	48 b8 61 62 6c 65 20 	movabs $0x206f7420656c6261,%rax
  402724:	74 6f 20 
  402727:	48 89 43 10          	mov    %rax,0x10(%rbx)
  40272b:	48 b8 77 72 69 74 65 	movabs $0x6f74206574697277,%rax
  402732:	20 74 6f 
  402735:	48 89 43 18          	mov    %rax,0x18(%rbx)
  402739:	48 b8 20 74 68 65 20 	movabs $0x7365722065687420,%rax
  402740:	72 65 73 
  402743:	48 89 43 20          	mov    %rax,0x20(%rbx)
  402747:	48 b8 75 6c 74 20 73 	movabs $0x7672657320746c75,%rax
  40274e:	65 72 76 
  402751:	48 89 43 28          	mov    %rax,0x28(%rbx)
  402755:	66 c7 43 30 65 72    	movw   $0x7265,0x30(%rbx)
  40275b:	c6 43 32 00          	movb   $0x0,0x32(%rbx)
  40275f:	89 ef                	mov    %ebp,%edi
  402761:	e8 2a e5 ff ff       	callq  400c90 <close@plt>
  402766:	b8 ff ff ff ff       	mov    $0xffffffff,%eax
  40276b:	e9 ee 00 00 00       	jmpq   40285e <submitr+0x587>
  402770:	48 b8 45 72 72 6f 72 	movabs $0x43203a726f727245,%rax
  402777:	3a 20 43 
  40277a:	48 89 03             	mov    %rax,(%rbx)
  40277d:	48 b8 6c 69 65 6e 74 	movabs $0x6e7520746e65696c,%rax
  402784:	20 75 6e 
  402787:	48 89 43 08          	mov    %rax,0x8(%rbx)
  40278b:	48 b8 61 62 6c 65 20 	movabs $0x206f7420656c6261,%rax
  402792:	74 6f 20 
  402795:	48 89 43 10          	mov    %rax,0x10(%rbx)
  402799:	48 b8 72 65 61 64 20 	movabs $0x7269662064616572,%rax
  4027a0:	66 69 72 
  4027a3:	48 89 43 18          	mov    %rax,0x18(%rbx)
  4027a7:	48 b8 73 74 20 68 65 	movabs $0x6564616568207473,%rax
  4027ae:	61 64 65 
  4027b1:	48 89 43 20          	mov    %rax,0x20(%rbx)
  4027b5:	48 b8 72 20 66 72 6f 	movabs $0x72206d6f72662072,%rax
  4027bc:	6d 20 72 
  4027bf:	48 89 43 28          	mov    %rax,0x28(%rbx)
  4027c3:	48 b8 65 73 75 6c 74 	movabs $0x657320746c757365,%rax
  4027ca:	20 73 65 
  4027cd:	48 89 43 30          	mov    %rax,0x30(%rbx)
  4027d1:	c7 43 38 72 76 65 72 	movl   $0x72657672,0x38(%rbx)
  4027d8:	c6 43 3c 00          	movb   $0x0,0x3c(%rbx)
  4027dc:	89 ef                	mov    %ebp,%edi
  4027de:	e8 ad e4 ff ff       	callq  400c90 <close@plt>
  4027e3:	b8 ff ff ff ff       	mov    $0xffffffff,%eax
  4027e8:	eb 74                	jmp    40285e <submitr+0x587>
  4027ea:	48 b8 45 72 72 6f 72 	movabs $0x43203a726f727245,%rax
  4027f1:	3a 20 43 
  4027f4:	48 89 03             	mov    %rax,(%rbx)
  4027f7:	48 b8 6c 69 65 6e 74 	movabs $0x6e7520746e65696c,%rax
  4027fe:	20 75 6e 
  402801:	48 89 43 08          	mov    %rax,0x8(%rbx)
  402805:	48 b8 61 62 6c 65 20 	movabs $0x206f7420656c6261,%rax
  40280c:	74 6f 20 
  40280f:	48 89 43 10          	mov    %rax,0x10(%rbx)
  402813:	48 b8 72 65 61 64 20 	movabs $0x6165682064616572,%rax
  40281a:	68 65 61 
  40281d:	48 89 43 18          	mov    %rax,0x18(%rbx)
  402821:	48 b8 64 65 72 73 20 	movabs $0x6f72662073726564,%rax
  402828:	66 72 6f 
  40282b:	48 89 43 20          	mov    %rax,0x20(%rbx)
  40282f:	48 b8 6d 20 74 68 65 	movabs $0x657220656874206d,%rax
  402836:	20 72 65 
  402839:	48 89 43 28          	mov    %rax,0x28(%rbx)
  40283d:	48 b8 73 75 6c 74 20 	movabs $0x72657320746c7573,%rax
  402844:	73 65 72 
  402847:	48 89 43 30          	mov    %rax,0x30(%rbx)
  40284b:	c7 43 38 76 65 72 00 	movl   $0x726576,0x38(%rbx)
  402852:	89 ef                	mov    %ebp,%edi
  402854:	e8 37 e4 ff ff       	callq  400c90 <close@plt>
  402859:	b8 ff ff ff ff       	mov    $0xffffffff,%eax
  40285e:	48 81 c4 58 a0 00 00 	add    $0xa058,%rsp
  402865:	5b                   	pop    %rbx
  402866:	5d                   	pop    %rbp
  402867:	41 5c                	pop    %r12
  402869:	41 5d                	pop    %r13
  40286b:	41 5e                	pop    %r14
  40286d:	41 5f                	pop    %r15
  40286f:	c3                   	retq   
  402870:	85 c0                	test   %eax,%eax
  402872:	74 51                	je     4028c5 <submitr+0x5ee>
  402874:	48 8d b4 24 30 60 00 	lea    0x6030(%rsp),%rsi
  40287b:	00 
  40287c:	48 8d bc 24 30 80 00 	lea    0x8030(%rsp),%rdi
  402883:	00 
  402884:	ba 00 20 00 00       	mov    $0x2000,%edx
  402889:	e8 ca f9 ff ff       	callq  402258 <rio_readlineb>
  40288e:	48 85 c0             	test   %rax,%rax
  402891:	0f 8e 53 ff ff ff    	jle    4027ea <submitr+0x513>
  402897:	0f b6 94 24 30 60 00 	movzbl 0x6030(%rsp),%edx
  40289e:	00 
  40289f:	b8 0d 00 00 00       	mov    $0xd,%eax
  4028a4:	29 d0                	sub    %edx,%eax
  4028a6:	75 c8                	jne    402870 <submitr+0x599>
  4028a8:	0f b6 94 24 31 60 00 	movzbl 0x6031(%rsp),%edx
  4028af:	00 
  4028b0:	b8 0a 00 00 00       	mov    $0xa,%eax
  4028b5:	29 d0                	sub    %edx,%eax
  4028b7:	75 b7                	jne    402870 <submitr+0x599>
  4028b9:	0f b6 84 24 32 60 00 	movzbl 0x6032(%rsp),%eax
  4028c0:	00 
  4028c1:	f7 d8                	neg    %eax
  4028c3:	eb ab                	jmp    402870 <submitr+0x599>
  4028c5:	48 8d b4 24 30 60 00 	lea    0x6030(%rsp),%rsi
  4028cc:	00 
  4028cd:	48 8d bc 24 30 80 00 	lea    0x8030(%rsp),%rdi
  4028d4:	00 
  4028d5:	ba 00 20 00 00       	mov    $0x2000,%edx
  4028da:	e8 79 f9 ff ff       	callq  402258 <rio_readlineb>
  4028df:	48 85 c0             	test   %rax,%rax
  4028e2:	7e 67                	jle    40294b <submitr+0x674>
  4028e4:	8b 94 24 2c 20 00 00 	mov    0x202c(%rsp),%edx
  4028eb:	81 fa c8 00 00 00    	cmp    $0xc8,%edx
  4028f1:	0f 85 d7 00 00 00    	jne    4029ce <submitr+0x6f7>
  4028f7:	48 8d b4 24 30 60 00 	lea    0x6030(%rsp),%rsi
  4028fe:	00 
  4028ff:	48 89 df             	mov    %rbx,%rdi
  402902:	e8 19 e3 ff ff       	callq  400c20 <strcpy@plt>
  402907:	89 ef                	mov    %ebp,%edi
  402909:	e8 82 e3 ff ff       	callq  400c90 <close@plt>
  40290e:	0f b6 03             	movzbl (%rbx),%eax
  402911:	ba 4f 00 00 00       	mov    $0x4f,%edx
  402916:	29 c2                	sub    %eax,%edx
  402918:	0f 85 da 00 00 00    	jne    4029f8 <submitr+0x721>
  40291e:	0f b6 4b 01          	movzbl 0x1(%rbx),%ecx
  402922:	b8 4b 00 00 00       	mov    $0x4b,%eax
  402927:	29 c8                	sub    %ecx,%eax
  402929:	0f 85 cb 00 00 00    	jne    4029fa <submitr+0x723>
  40292f:	0f b6 4b 02          	movzbl 0x2(%rbx),%ecx
  402933:	b8 0a 00 00 00       	mov    $0xa,%eax
  402938:	29 c8                	sub    %ecx,%eax
  40293a:	0f 85 ba 00 00 00    	jne    4029fa <submitr+0x723>
  402940:	0f b6 43 03          	movzbl 0x3(%rbx),%eax
  402944:	f7 d8                	neg    %eax
  402946:	e9 af 00 00 00       	jmpq   4029fa <submitr+0x723>
  40294b:	48 b8 45 72 72 6f 72 	movabs $0x43203a726f727245,%rax
  402952:	3a 20 43 
  402955:	48 89 03             	mov    %rax,(%rbx)
  402958:	48 b8 6c 69 65 6e 74 	movabs $0x6e7520746e65696c,%rax
  40295f:	20 75 6e 
  402962:	48 89 43 08          	mov    %rax,0x8(%rbx)
  402966:	48 b8 61 62 6c 65 20 	movabs $0x206f7420656c6261,%rax
  40296d:	74 6f 20 
  402970:	48 89 43 10          	mov    %rax,0x10(%rbx)
  402974:	48 b8 72 65 61 64 20 	movabs $0x6174732064616572,%rax
  40297b:	73 74 61 
  40297e:	48 89 43 18          	mov    %rax,0x18(%rbx)
  402982:	48 b8 74 75 73 20 6d 	movabs $0x7373656d20737574,%rax
  402989:	65 73 73 
  40298c:	48 89 43 20          	mov    %rax,0x20(%rbx)
  402990:	48 b8 61 67 65 20 66 	movabs $0x6d6f726620656761,%rax
  402997:	72 6f 6d 
  40299a:	48 89 43 28          	mov    %rax,0x28(%rbx)
  40299e:	48 b8 20 72 65 73 75 	movabs $0x20746c7573657220,%rax
  4029a5:	6c 74 20 
  4029a8:	48 89 43 30          	mov    %rax,0x30(%rbx)
  4029ac:	c7 43 38 73 65 72 76 	movl   $0x76726573,0x38(%rbx)
  4029b3:	66 c7 43 3c 65 72    	movw   $0x7265,0x3c(%rbx)
  4029b9:	c6 43 3e 00          	movb   $0x0,0x3e(%rbx)
  4029bd:	89 ef                	mov    %ebp,%edi
  4029bf:	e8 cc e2 ff ff       	callq  400c90 <close@plt>
  4029c4:	b8 ff ff ff ff       	mov    $0xffffffff,%eax
  4029c9:	e9 90 fe ff ff       	jmpq   40285e <submitr+0x587>
  4029ce:	48 8d 4c 24 20       	lea    0x20(%rsp),%rcx
  4029d3:	48 8d 35 ee 0a 00 00 	lea    0xaee(%rip),%rsi        # 4034c8 <trans_char+0x78>
  4029da:	48 89 df             	mov    %rbx,%rdi
  4029dd:	b8 00 00 00 00       	mov    $0x0,%eax
  4029e2:	e8 b9 e3 ff ff       	callq  400da0 <sprintf@plt>
  4029e7:	89 ef                	mov    %ebp,%edi
  4029e9:	e8 a2 e2 ff ff       	callq  400c90 <close@plt>
  4029ee:	b8 ff ff ff ff       	mov    $0xffffffff,%eax
  4029f3:	e9 66 fe ff ff       	jmpq   40285e <submitr+0x587>
  4029f8:	89 d0                	mov    %edx,%eax
  4029fa:	f7 d8                	neg    %eax
  4029fc:	0f 84 5c fe ff ff    	je     40285e <submitr+0x587>
  402a02:	b9 05 00 00 00       	mov    $0x5,%ecx
  402a07:	48 8d 3d 02 0b 00 00 	lea    0xb02(%rip),%rdi        # 403510 <trans_char+0xc0>
  402a0e:	48 89 de             	mov    %rbx,%rsi
  402a11:	f3 a6                	repz cmpsb %es:(%rdi),%ds:(%rsi)
  402a13:	0f 97 c0             	seta   %al
  402a16:	0f 92 c1             	setb   %cl
  402a19:	29 c8                	sub    %ecx,%eax
  402a1b:	0f be c0             	movsbl %al,%eax
  402a1e:	85 c0                	test   %eax,%eax
  402a20:	0f 84 38 fe ff ff    	je     40285e <submitr+0x587>
  402a26:	85 d2                	test   %edx,%edx
  402a28:	75 13                	jne    402a3d <submitr+0x766>
  402a2a:	0f b6 43 01          	movzbl 0x1(%rbx),%eax
  402a2e:	ba 4b 00 00 00       	mov    $0x4b,%edx
  402a33:	29 c2                	sub    %eax,%edx
  402a35:	75 06                	jne    402a3d <submitr+0x766>
  402a37:	0f b6 53 02          	movzbl 0x2(%rbx),%edx
  402a3b:	f7 da                	neg    %edx
  402a3d:	89 d0                	mov    %edx,%eax
  402a3f:	f7 d8                	neg    %eax
  402a41:	0f 84 17 fe ff ff    	je     40285e <submitr+0x587>
  402a47:	b8 ff ff ff ff       	mov    $0xffffffff,%eax
  402a4c:	e9 0d fe ff ff       	jmpq   40285e <submitr+0x587>

0000000000402a51 <init_timeout>:
  402a51:	85 ff                	test   %edi,%edi
  402a53:	74 20                	je     402a75 <init_timeout+0x24>
  402a55:	53                   	push   %rbx
  402a56:	89 fb                	mov    %edi,%ebx
  402a58:	85 ff                	test   %edi,%edi
  402a5a:	78 1b                	js     402a77 <init_timeout+0x26>
  402a5c:	48 8d 35 05 f6 ff ff 	lea    -0x9fb(%rip),%rsi        # 402068 <sigalrm_handler>
  402a63:	bf 0e 00 00 00       	mov    $0xe,%edi
  402a68:	e8 43 e2 ff ff       	callq  400cb0 <signal@plt>
  402a6d:	89 df                	mov    %ebx,%edi
  402a6f:	e8 0c e2 ff ff       	callq  400c80 <alarm@plt>
  402a74:	5b                   	pop    %rbx
  402a75:	f3 c3                	repz retq 
  402a77:	bb 00 00 00 00       	mov    $0x0,%ebx
  402a7c:	eb de                	jmp    402a5c <init_timeout+0xb>

0000000000402a7e <init_driver>:
  402a7e:	41 54                	push   %r12
  402a80:	55                   	push   %rbp
  402a81:	53                   	push   %rbx
  402a82:	48 83 ec 10          	sub    $0x10,%rsp
  402a86:	48 89 fd             	mov    %rdi,%rbp
  402a89:	be 01 00 00 00       	mov    $0x1,%esi
  402a8e:	bf 0d 00 00 00       	mov    $0xd,%edi
  402a93:	e8 18 e2 ff ff       	callq  400cb0 <signal@plt>
  402a98:	be 01 00 00 00       	mov    $0x1,%esi
  402a9d:	bf 1d 00 00 00       	mov    $0x1d,%edi
  402aa2:	e8 09 e2 ff ff       	callq  400cb0 <signal@plt>
  402aa7:	be 01 00 00 00       	mov    $0x1,%esi
  402aac:	bf 1d 00 00 00       	mov    $0x1d,%edi
  402ab1:	e8 fa e1 ff ff       	callq  400cb0 <signal@plt>
  402ab6:	ba 00 00 00 00       	mov    $0x0,%edx
  402abb:	be 01 00 00 00       	mov    $0x1,%esi
  402ac0:	bf 02 00 00 00       	mov    $0x2,%edi
  402ac5:	e8 06 e3 ff ff       	callq  400dd0 <socket@plt>
  402aca:	85 c0                	test   %eax,%eax
  402acc:	0f 88 80 00 00 00    	js     402b52 <init_driver+0xd4>
  402ad2:	89 c3                	mov    %eax,%ebx
  402ad4:	48 8d 3d 3a 0a 00 00 	lea    0xa3a(%rip),%rdi        # 403515 <trans_char+0xc5>
  402adb:	e8 e0 e1 ff ff       	callq  400cc0 <gethostbyname@plt>
  402ae0:	48 85 c0             	test   %rax,%rax
  402ae3:	0f 84 b5 00 00 00    	je     402b9e <init_driver+0x120>
  402ae9:	48 c7 04 24 00 00 00 	movq   $0x0,(%rsp)
  402af0:	00 
  402af1:	48 c7 44 24 08 00 00 	movq   $0x0,0x8(%rsp)
  402af8:	00 00 
  402afa:	66 c7 04 24 02 00    	movw   $0x2,(%rsp)
  402b00:	48 8b 48 18          	mov    0x18(%rax),%rcx
  402b04:	48 63 50 14          	movslq 0x14(%rax),%rdx
  402b08:	48 8d 74 24 04       	lea    0x4(%rsp),%rsi
  402b0d:	48 8b 39             	mov    (%rcx),%rdi
  402b10:	e8 3b e2 ff ff       	callq  400d50 <bcopy@plt>
  402b15:	66 c7 44 24 02 3c a4 	movw   $0xa43c,0x2(%rsp)
  402b1c:	ba 10 00 00 00       	mov    $0x10,%edx
  402b21:	48 89 e6             	mov    %rsp,%rsi
  402b24:	89 df                	mov    %ebx,%edi
  402b26:	e8 95 e2 ff ff       	callq  400dc0 <connect@plt>
  402b2b:	85 c0                	test   %eax,%eax
  402b2d:	0f 88 d3 00 00 00    	js     402c06 <init_driver+0x188>
  402b33:	89 df                	mov    %ebx,%edi
  402b35:	e8 56 e1 ff ff       	callq  400c90 <close@plt>
  402b3a:	66 c7 45 00 4f 4b    	movw   $0x4b4f,0x0(%rbp)
  402b40:	c6 45 02 00          	movb   $0x0,0x2(%rbp)
  402b44:	b8 00 00 00 00       	mov    $0x0,%eax
  402b49:	48 83 c4 10          	add    $0x10,%rsp
  402b4d:	5b                   	pop    %rbx
  402b4e:	5d                   	pop    %rbp
  402b4f:	41 5c                	pop    %r12
  402b51:	c3                   	retq   
  402b52:	48 b8 45 72 72 6f 72 	movabs $0x43203a726f727245,%rax
  402b59:	3a 20 43 
  402b5c:	48 89 45 00          	mov    %rax,0x0(%rbp)
  402b60:	48 b8 6c 69 65 6e 74 	movabs $0x6e7520746e65696c,%rax
  402b67:	20 75 6e 
  402b6a:	48 89 45 08          	mov    %rax,0x8(%rbp)
  402b6e:	48 b8 61 62 6c 65 20 	movabs $0x206f7420656c6261,%rax
  402b75:	74 6f 20 
  402b78:	48 89 45 10          	mov    %rax,0x10(%rbp)
  402b7c:	48 b8 63 72 65 61 74 	movabs $0x7320657461657263,%rax
  402b83:	65 20 73 
  402b86:	48 89 45 18          	mov    %rax,0x18(%rbp)
  402b8a:	c7 45 20 6f 63 6b 65 	movl   $0x656b636f,0x20(%rbp)
  402b91:	66 c7 45 24 74 00    	movw   $0x74,0x24(%rbp)
  402b97:	b8 ff ff ff ff       	mov    $0xffffffff,%eax
  402b9c:	eb ab                	jmp    402b49 <init_driver+0xcb>
  402b9e:	48 b8 45 72 72 6f 72 	movabs $0x44203a726f727245,%rax
  402ba5:	3a 20 44 
  402ba8:	48 89 45 00          	mov    %rax,0x0(%rbp)
  402bac:	48 b8 4e 53 20 69 73 	movabs $0x6e7520736920534e,%rax
  402bb3:	20 75 6e 
  402bb6:	48 89 45 08          	mov    %rax,0x8(%rbp)
  402bba:	48 b8 61 62 6c 65 20 	movabs $0x206f7420656c6261,%rax
  402bc1:	74 6f 20 
  402bc4:	48 89 45 10          	mov    %rax,0x10(%rbp)
  402bc8:	48 b8 72 65 73 6f 6c 	movabs $0x2065766c6f736572,%rax
  402bcf:	76 65 20 
  402bd2:	48 89 45 18          	mov    %rax,0x18(%rbp)
  402bd6:	48 b8 73 65 72 76 65 	movabs $0x6120726576726573,%rax
  402bdd:	72 20 61 
  402be0:	48 89 45 20          	mov    %rax,0x20(%rbp)
  402be4:	c7 45 28 64 64 72 65 	movl   $0x65726464,0x28(%rbp)
  402beb:	66 c7 45 2c 73 73    	movw   $0x7373,0x2c(%rbp)
  402bf1:	c6 45 2e 00          	movb   $0x0,0x2e(%rbp)
  402bf5:	89 df                	mov    %ebx,%edi
  402bf7:	e8 94 e0 ff ff       	callq  400c90 <close@plt>
  402bfc:	b8 ff ff ff ff       	mov    $0xffffffff,%eax
  402c01:	e9 43 ff ff ff       	jmpq   402b49 <init_driver+0xcb>
  402c06:	48 b8 45 72 72 6f 72 	movabs $0x55203a726f727245,%rax
  402c0d:	3a 20 55 
  402c10:	48 89 45 00          	mov    %rax,0x0(%rbp)
  402c14:	48 b8 6e 61 62 6c 65 	movabs $0x6f7420656c62616e,%rax
  402c1b:	20 74 6f 
  402c1e:	48 89 45 08          	mov    %rax,0x8(%rbp)
  402c22:	48 b8 20 63 6f 6e 6e 	movabs $0x7463656e6e6f6320,%rax
  402c29:	65 63 74 
  402c2c:	48 89 45 10          	mov    %rax,0x10(%rbp)
  402c30:	48 b8 20 74 6f 20 73 	movabs $0x76726573206f7420,%rax
  402c37:	65 72 76 
  402c3a:	48 89 45 18          	mov    %rax,0x18(%rbp)
  402c3e:	66 c7 45 20 65 72    	movw   $0x7265,0x20(%rbp)
  402c44:	c6 45 22 00          	movb   $0x0,0x22(%rbp)
  402c48:	89 df                	mov    %ebx,%edi
  402c4a:	e8 41 e0 ff ff       	callq  400c90 <close@plt>
  402c4f:	b8 ff ff ff ff       	mov    $0xffffffff,%eax
  402c54:	e9 f0 fe ff ff       	jmpq   402b49 <init_driver+0xcb>

0000000000402c59 <driver_post>:
  402c59:	53                   	push   %rbx
  402c5a:	4c 89 cb             	mov    %r9,%rbx
  402c5d:	45 85 c0             	test   %r8d,%r8d
  402c60:	75 18                	jne    402c7a <driver_post+0x21>
  402c62:	48 85 ff             	test   %rdi,%rdi
  402c65:	74 05                	je     402c6c <driver_post+0x13>
  402c67:	80 3f 00             	cmpb   $0x0,(%rdi)
  402c6a:	75 32                	jne    402c9e <driver_post+0x45>
  402c6c:	66 c7 03 4f 4b       	movw   $0x4b4f,(%rbx)
  402c71:	c6 43 02 00          	movb   $0x0,0x2(%rbx)
  402c75:	44 89 c0             	mov    %r8d,%eax
  402c78:	5b                   	pop    %rbx
  402c79:	c3                   	retq   
  402c7a:	48 89 ce             	mov    %rcx,%rsi
  402c7d:	48 8d 3d 9f 08 00 00 	lea    0x89f(%rip),%rdi        # 403523 <trans_char+0xd3>
  402c84:	b8 00 00 00 00       	mov    $0x0,%eax
  402c89:	e8 d2 df ff ff       	callq  400c60 <printf@plt>
  402c8e:	66 c7 03 4f 4b       	movw   $0x4b4f,(%rbx)
  402c93:	c6 43 02 00          	movb   $0x0,0x2(%rbx)
  402c97:	b8 00 00 00 00       	mov    $0x0,%eax
  402c9c:	eb da                	jmp    402c78 <driver_post+0x1f>
  402c9e:	48 83 ec 08          	sub    $0x8,%rsp
  402ca2:	41 51                	push   %r9
  402ca4:	49 89 c9             	mov    %rcx,%r9
  402ca7:	49 89 d0             	mov    %rdx,%r8
  402caa:	48 89 f9             	mov    %rdi,%rcx
  402cad:	48 89 f2             	mov    %rsi,%rdx
  402cb0:	be a4 3c 00 00       	mov    $0x3ca4,%esi
  402cb5:	48 8d 3d 59 08 00 00 	lea    0x859(%rip),%rdi        # 403515 <trans_char+0xc5>
  402cbc:	e8 16 f6 ff ff       	callq  4022d7 <submitr>
  402cc1:	48 83 c4 10          	add    $0x10,%rsp
  402cc5:	eb b1                	jmp    402c78 <driver_post+0x1f>

0000000000402cc7 <check>:
  402cc7:	89 f8                	mov    %edi,%eax
  402cc9:	c1 e8 1c             	shr    $0x1c,%eax
  402ccc:	85 c0                	test   %eax,%eax
  402cce:	74 1d                	je     402ced <check+0x26>
  402cd0:	b9 00 00 00 00       	mov    $0x0,%ecx
  402cd5:	83 f9 1f             	cmp    $0x1f,%ecx
  402cd8:	7f 0d                	jg     402ce7 <check+0x20>
  402cda:	89 f8                	mov    %edi,%eax
  402cdc:	d3 e8                	shr    %cl,%eax
  402cde:	3c 0a                	cmp    $0xa,%al
  402ce0:	74 11                	je     402cf3 <check+0x2c>
  402ce2:	83 c1 08             	add    $0x8,%ecx
  402ce5:	eb ee                	jmp    402cd5 <check+0xe>
  402ce7:	b8 01 00 00 00       	mov    $0x1,%eax
  402cec:	c3                   	retq   
  402ced:	b8 00 00 00 00       	mov    $0x0,%eax
  402cf2:	c3                   	retq   
  402cf3:	b8 00 00 00 00       	mov    $0x0,%eax
  402cf8:	c3                   	retq   

0000000000402cf9 <gencookie>:
  402cf9:	53                   	push   %rbx
  402cfa:	83 c7 01             	add    $0x1,%edi
  402cfd:	e8 fe de ff ff       	callq  400c00 <srandom@plt>
  402d02:	e8 09 e0 ff ff       	callq  400d10 <random@plt>
  402d07:	89 c3                	mov    %eax,%ebx
  402d09:	89 c7                	mov    %eax,%edi
  402d0b:	e8 b7 ff ff ff       	callq  402cc7 <check>
  402d10:	85 c0                	test   %eax,%eax
  402d12:	74 ee                	je     402d02 <gencookie+0x9>
  402d14:	89 d8                	mov    %ebx,%eax
  402d16:	5b                   	pop    %rbx
  402d17:	c3                   	retq   
  402d18:	0f 1f 84 00 00 00 00 	nopl   0x0(%rax,%rax,1)
  402d1f:	00 

0000000000402d20 <__libc_csu_init>:
  402d20:	41 57                	push   %r15
  402d22:	41 56                	push   %r14
  402d24:	41 89 ff             	mov    %edi,%r15d
  402d27:	41 55                	push   %r13
  402d29:	41 54                	push   %r12
  402d2b:	4c 8d 25 d6 20 20 00 	lea    0x2020d6(%rip),%r12        # 604e08 <__frame_dummy_init_array_entry>
  402d32:	55                   	push   %rbp
  402d33:	48 8d 2d d6 20 20 00 	lea    0x2020d6(%rip),%rbp        # 604e10 <__init_array_end>
  402d3a:	53                   	push   %rbx
  402d3b:	49 89 f6             	mov    %rsi,%r14
  402d3e:	49 89 d5             	mov    %rdx,%r13
  402d41:	4c 29 e5             	sub    %r12,%rbp
  402d44:	48 83 ec 08          	sub    $0x8,%rsp
  402d48:	48 c1 fd 03          	sar    $0x3,%rbp
  402d4c:	e8 5f de ff ff       	callq  400bb0 <_init>
  402d51:	48 85 ed             	test   %rbp,%rbp
  402d54:	74 20                	je     402d76 <__libc_csu_init+0x56>
  402d56:	31 db                	xor    %ebx,%ebx
  402d58:	0f 1f 84 00 00 00 00 	nopl   0x0(%rax,%rax,1)
  402d5f:	00 
  402d60:	4c 89 ea             	mov    %r13,%rdx
  402d63:	4c 89 f6             	mov    %r14,%rsi
  402d66:	44 89 ff             	mov    %r15d,%edi
  402d69:	41 ff 14 dc          	callq  *(%r12,%rbx,8)
  402d6d:	48 83 c3 01          	add    $0x1,%rbx
  402d71:	48 39 dd             	cmp    %rbx,%rbp
  402d74:	75 ea                	jne    402d60 <__libc_csu_init+0x40>
  402d76:	48 83 c4 08          	add    $0x8,%rsp
  402d7a:	5b                   	pop    %rbx
  402d7b:	5d                   	pop    %rbp
  402d7c:	41 5c                	pop    %r12
  402d7e:	41 5d                	pop    %r13
  402d80:	41 5e                	pop    %r14
  402d82:	41 5f                	pop    %r15
  402d84:	c3                   	retq   
  402d85:	90                   	nop
  402d86:	66 2e 0f 1f 84 00 00 	nopw   %cs:0x0(%rax,%rax,1)
  402d8d:	00 00 00 

0000000000402d90 <__libc_csu_fini>:
  402d90:	f3 c3                	repz retq 

Disassembly of section .fini:

0000000000402d94 <_fini>:
  402d94:	48 83 ec 08          	sub    $0x8,%rsp
  402d98:	48 83 c4 08          	add    $0x8,%rsp
  402d9c:	c3                   	retq   
